(dp0
S'Southampton'
p1
(dp2
S'24'
p3
(lp4
ccopy_reg
_reconstructor
p5
(cFixtures
FutureFixture
p6
c__builtin__
object
p7
Ntp8
Rp9
(dp10
S'data'
p11
(dp12
S'gameweek'
p13
I24
sS'location'
p14
S'A'
p15
sS'opponent'
p16
VMan Utd
p17
ssbasS'25'
p18
(lp19
g5
(g6
g7
Ntp20
Rp21
(dp22
g11
(dp23
g13
I25
sg14
g15
sg16
VWigan
p24
ssbasS'26'
p25
(lp26
g5
(g6
g7
Ntp27
Rp28
(dp29
g11
(dp30
g13
I26
sg14
S'H'
p31
sg16
VMan City
p32
ssbasS'27'
p33
(lp34
g5
(g6
g7
Ntp35
Rp36
(dp37
g11
(dp38
g13
I27
sg14
g15
sg16
VNewcastle
p39
ssbasS'20'
p40
(lp41
g5
(g6
g7
Ntp42
Rp43
(dp44
g11
(dp45
g13
I20
sg14
g15
sg16
VStoke City
p46
ssbasS'21'
p47
(lp48
g5
(g6
g7
Ntp49
Rp50
(dp51
g11
(dp52
g13
I21
sg14
g31
sg16
VArsenal
p53
ssbasS'22'
p54
(lp55
g5
(g6
g7
Ntp56
Rp57
(dp58
g11
(dp59
g13
I22
sg14
g15
sg16
VAston Villa
p60
ssbag5
(g6
g7
Ntp61
Rp62
(dp63
g11
(dp64
g13
I22
sg14
g15
sg16
VChelsea
p65
ssbasS'23'
p66
(lp67
g5
(g6
g7
Ntp68
Rp69
(dp70
g11
(dp71
g13
I23
sg14
g31
sg16
VEverton
p72
ssbasS'28'
p73
(lp74
g5
(g6
g7
Ntp75
Rp76
(dp77
g11
(dp78
g13
I28
sg14
g31
sg16
VQPR
p79
ssbasS'29'
p80
(lp81
g5
(g6
g7
Ntp82
Rp83
(dp84
g11
(dp85
g13
I29
sg14
g15
sg16
VNorwich
p86
ssbasS'1'
p87
(lp88
g5
(g6
g7
Ntp89
Rp90
(dp91
g11
(dp92
g13
I1
sg14
g15
sg16
VMan City
p93
ssbasS'3'
p94
(lp95
g5
(g6
g7
Ntp96
Rp97
(dp98
g11
(dp99
g13
I3
sg14
g31
sg16
VMan Utd
p100
ssbasS'2'
p101
(lp102
g5
(g6
g7
Ntp103
Rp104
(dp105
g11
(dp106
g13
I2
sg14
g31
sg16
VWigan
p107
ssbasS'5'
p108
(lp109
g5
(g6
g7
Ntp110
Rp111
(dp112
g11
(dp113
g13
I5
sg14
g31
sg16
VAston Villa
p114
ssbasS'4'
p115
(lp116
g5
(g6
g7
Ntp117
Rp118
(dp119
g11
(dp120
g13
I4
sg14
g15
sg16
VArsenal
p121
ssbasS'7'
p122
(lp123
g5
(g6
g7
Ntp124
Rp125
(dp126
g11
(dp127
g13
I7
sg14
g31
sg16
VFulham
p128
ssbasS'6'
p129
(lp130
g5
(g6
g7
Ntp131
Rp132
(dp133
g11
(dp134
g13
I6
sg14
g15
sg16
VEverton
p135
ssbasS'9'
p136
(lp137
g5
(g6
g7
Ntp138
Rp139
(dp140
g11
(dp141
g13
I9
sg14
g31
sg16
VTottenham
p142
ssbasS'8'
p143
(lp144
g5
(g6
g7
Ntp145
Rp146
(dp147
g11
(dp148
g13
I8
sg14
g15
sg16
VWest Ham
p149
ssbasS'38'
p150
(lp151
g5
(g6
g7
Ntp152
Rp153
(dp154
g11
(dp155
g13
I38
sg14
g31
sg16
VStoke City
p156
ssbasS'11'
p157
(lp158
g5
(g6
g7
Ntp159
Rp160
(dp161
g11
(dp162
g13
I11
sg14
g31
sg16
VSwansea
p163
ssbasS'10'
p164
(lp165
g5
(g6
g7
Ntp166
Rp167
(dp168
g11
(dp169
g13
I10
sg14
g15
sg16
VWest Brom
p170
ssbasS'13'
p171
(lp172
g5
(g6
g7
Ntp173
Rp174
(dp175
g11
(dp176
g13
I13
sg14
g31
sg16
VNewcastle
p177
ssbasS'12'
p178
(lp179
g5
(g6
g7
Ntp180
Rp181
(dp182
g11
(dp183
g13
I12
sg14
g15
sg16
VQPR
p184
ssbasS'15'
p185
(lp186
g5
(g6
g7
Ntp187
Rp188
(dp189
g11
(dp190
g13
I15
sg14
g15
sg16
VLiverpool
p191
ssbasS'14'
p192
(lp193
g5
(g6
g7
Ntp194
Rp195
(dp196
g11
(dp197
g13
I14
sg14
g31
sg16
VNorwich
p198
ssbasS'17'
p199
(lp200
sS'16'
p201
(lp202
g5
(g6
g7
Ntp203
Rp204
(dp205
g11
(dp206
g13
I16
sg14
g31
sg16
VReading
p207
ssbasS'19'
p208
(lp209
g5
(g6
g7
Ntp210
Rp211
(dp212
g11
(dp213
g13
I19
sg14
g15
sg16
VFulham
p214
ssbasS'18'
p215
(lp216
g5
(g6
g7
Ntp217
Rp218
(dp219
g11
(dp220
g13
I18
sg14
g31
sg16
VSunderland
p221
ssbasS'31'
p222
(lp223
g5
(g6
g7
Ntp224
Rp225
(dp226
g11
(dp227
g13
I31
sg14
g31
sg16
VChelsea
p228
ssbasS'30'
p229
(lp230
g5
(g6
g7
Ntp231
Rp232
(dp233
g11
(dp234
g13
I30
sg14
g31
sg16
VLiverpool
p235
ssbasS'37'
p236
(lp237
g5
(g6
g7
Ntp238
Rp239
(dp240
g11
(dp241
g13
I37
sg14
g15
sg16
VSunderland
p242
ssbasS'36'
p243
(lp244
g5
(g6
g7
Ntp245
Rp246
(dp247
g11
(dp248
g13
I36
sg14
g15
sg16
VTottenham
p249
ssbasS'35'
p250
(lp251
g5
(g6
g7
Ntp252
Rp253
(dp254
g11
(dp255
g13
I35
sg14
g31
sg16
VWest Brom
p256
ssbasS'34'
p257
(lp258
g5
(g6
g7
Ntp259
Rp260
(dp261
g11
(dp262
g13
I34
sg14
g15
sg16
VSwansea
p263
ssbasS'33'
p264
(lp265
g5
(g6
g7
Ntp266
Rp267
(dp268
g11
(dp269
g13
I33
sg14
g31
sg16
VWest Ham
p270
ssbasS'32'
p271
(lp272
g5
(g6
g7
Ntp273
Rp274
(dp275
g11
(dp276
g13
I32
sg14
g15
sg16
VReading
p277
ssbassS'Liverpool'
p278
(dp279
S'24'
p280
(lp281
g5
(g6
g7
Ntp282
Rp283
(dp284
g11
(dp285
g13
I24
sg14
g15
sg16
VArsenal
p286
ssbasS'25'
p287
(lp288
g5
(g6
g7
Ntp289
Rp290
(dp291
g11
(dp292
g13
I25
sg14
g15
sg16
VMan City
p293
ssbasS'26'
p294
(lp295
g5
(g6
g7
Ntp296
Rp297
(dp298
g11
(dp299
g13
I26
sg14
g31
sg16
VWest Brom
p300
ssbag5
(g6
g7
Ntp301
Rp302
(dp303
g11
(dp304
g13
I26
sg14
g31
sg16
VSwansea
p305
ssbasS'27'
p306
(lp307
sS'20'
p308
(lp309
g5
(g6
g7
Ntp310
Rp311
(dp312
g11
(dp313
g13
I20
sg14
g15
sg16
VQPR
p314
ssbasS'21'
p315
(lp316
g5
(g6
g7
Ntp317
Rp318
(dp319
g11
(dp320
g13
I21
sg14
g31
sg16
VSunderland
p321
ssbasS'22'
p322
(lp323
g5
(g6
g7
Ntp324
Rp325
(dp326
g11
(dp327
g13
I22
sg14
g15
sg16
VMan Utd
p328
ssbasS'23'
p329
(lp330
g5
(g6
g7
Ntp331
Rp332
(dp333
g11
(dp334
g13
I23
sg14
g31
sg16
VNorwich
p335
ssbasS'28'
p336
(lp337
g5
(g6
g7
Ntp338
Rp339
(dp340
g11
(dp341
g13
I28
sg14
g15
sg16
VWigan
p342
ssbasS'29'
p343
(lp344
g5
(g6
g7
Ntp345
Rp346
(dp347
g11
(dp348
g13
I29
sg14
g31
sg16
VTottenham
p349
ssbasg87
(lp350
g5
(g6
g7
Ntp351
Rp352
(dp353
g11
(dp354
g13
I1
sg14
g15
sg16
VWest Brom
p355
ssbasg94
(lp356
g5
(g6
g7
Ntp357
Rp358
(dp359
g11
(dp360
g13
I3
sg14
g31
sg16
VArsenal
p361
ssbasg101
(lp362
g5
(g6
g7
Ntp363
Rp364
(dp365
g11
(dp366
g13
I2
sg14
g31
sg16
VMan City
p367
ssbasg108
(lp368
g5
(g6
g7
Ntp369
Rp370
(dp371
g11
(dp372
g13
I5
sg14
g31
sg16
VMan Utd
p373
ssbasg115
(lp374
g5
(g6
g7
Ntp375
Rp376
(dp377
g11
(dp378
g13
I4
sg14
g15
sg16
VSunderland
p379
ssbasg122
(lp380
g5
(g6
g7
Ntp381
Rp382
(dp383
g11
(dp384
g13
I7
sg14
g31
sg16
VStoke City
p385
ssbasg129
(lp386
g5
(g6
g7
Ntp387
Rp388
(dp389
g11
(dp390
g13
I6
sg14
g15
sg16
VNorwich
p391
ssbasg136
(lp392
g5
(g6
g7
Ntp393
Rp394
(dp395
g11
(dp396
g13
I9
sg14
g15
sg16
VEverton
p397
ssbasg143
(lp398
g5
(g6
g7
Ntp399
Rp400
(dp401
g11
(dp402
g13
I8
sg14
g31
sg16
VReading
p403
ssbasS'38'
p404
(lp405
g5
(g6
g7
Ntp406
Rp407
(dp408
g11
(dp409
g13
I38
sg14
g31
sg16
VQPR
p410
ssbasS'11'
p411
(lp412
g5
(g6
g7
Ntp413
Rp414
(dp415
g11
(dp416
g13
I11
sg14
g15
sg16
VChelsea
p417
ssbasS'10'
p418
(lp419
g5
(g6
g7
Ntp420
Rp421
(dp422
g11
(dp423
g13
I10
sg14
g31
sg16
VNewcastle
p424
ssbasS'13'
p425
(lp426
g5
(g6
g7
Ntp427
Rp428
(dp429
g11
(dp430
g13
I13
sg14
g15
sg16
VSwansea
p431
ssbasS'12'
p432
(lp433
g5
(g6
g7
Ntp434
Rp435
(dp436
g11
(dp437
g13
I12
sg14
g31
sg16
VWigan
p438
ssbasS'15'
p439
(lp440
g5
(g6
g7
Ntp441
Rp442
(dp443
g11
(dp444
g13
I15
sg14
g31
sg16
VSouthampton
p445
ssbasS'14'
p446
(lp447
g5
(g6
g7
Ntp448
Rp449
(dp450
g11
(dp451
g13
I14
sg14
g15
sg16
VTottenham
p452
ssbasS'17'
p453
(lp454
g5
(g6
g7
Ntp455
Rp456
(dp457
g11
(dp458
g13
I17
sg14
g31
sg16
VAston Villa
p459
ssbasS'16'
p460
(lp461
g5
(g6
g7
Ntp462
Rp463
(dp464
g11
(dp465
g13
I16
sg14
g15
sg16
VWest Ham
p466
ssbasS'19'
p467
(lp468
g5
(g6
g7
Ntp469
Rp470
(dp471
g11
(dp472
g13
I19
sg14
g15
sg16
VStoke City
p473
ssbasS'18'
p474
(lp475
g5
(g6
g7
Ntp476
Rp477
(dp478
g11
(dp479
g13
I18
sg14
g31
sg16
VFulham
p480
ssbasS'31'
p481
(lp482
g5
(g6
g7
Ntp483
Rp484
(dp485
g11
(dp486
g13
I31
sg14
g15
sg16
VAston Villa
p487
ssbasS'30'
p488
(lp489
g5
(g6
g7
Ntp490
Rp491
(dp492
g11
(dp493
g13
I30
sg14
g15
sg16
VSouthampton
p494
ssbasS'37'
p495
(lp496
g5
(g6
g7
Ntp497
Rp498
(dp499
g11
(dp500
g13
I37
sg14
g15
sg16
VFulham
p501
ssbasS'36'
p502
(lp503
g5
(g6
g7
Ntp504
Rp505
(dp506
g11
(dp507
g13
I36
sg14
g31
sg16
VEverton
p508
ssbasS'35'
p509
(lp510
g5
(g6
g7
Ntp511
Rp512
(dp513
g11
(dp514
g13
I35
sg14
g15
sg16
VNewcastle
p515
ssbasS'34'
p516
(lp517
g5
(g6
g7
Ntp518
Rp519
(dp520
g11
(dp521
g13
I34
sg14
g31
sg16
VChelsea
p522
ssbasS'33'
p523
(lp524
g5
(g6
g7
Ntp525
Rp526
(dp527
g11
(dp528
g13
I33
sg14
g15
sg16
VReading
p529
ssbasS'32'
p530
(lp531
g5
(g6
g7
Ntp532
Rp533
(dp534
g11
(dp535
g13
I32
sg14
g31
sg16
VWest Ham
p536
ssbassS'Reading'
p537
(dp538
S'24'
p539
(lp540
g5
(g6
g7
Ntp541
Rp542
(dp543
g11
(dp544
g13
I24
sg14
g31
sg16
VChelsea
p545
ssbasS'25'
p546
(lp547
g5
(g6
g7
Ntp548
Rp549
(dp550
g11
(dp551
g13
I25
sg14
g31
sg16
VSunderland
p552
ssbasS'26'
p553
(lp554
g5
(g6
g7
Ntp555
Rp556
(dp557
g11
(dp558
g13
I26
sg14
g15
sg16
VStoke City
p559
ssbasS'27'
p560
(lp561
g5
(g6
g7
Ntp562
Rp563
(dp564
g11
(dp565
g13
I27
sg14
g31
sg16
VWigan
p566
ssbasS'20'
p567
(lp568
g5
(g6
g7
Ntp569
Rp570
(dp571
g11
(dp572
g13
I20
sg14
g31
sg16
VWest Ham
p573
ssbasS'21'
p574
(lp575
g5
(g6
g7
Ntp576
Rp577
(dp578
g11
(dp579
g13
I21
sg14
g15
sg16
VTottenham
p580
ssbasS'22'
p581
(lp582
g5
(g6
g7
Ntp583
Rp584
(dp585
g11
(dp586
g13
I22
sg14
g31
sg16
VWest Brom
p587
ssbasS'23'
p588
(lp589
g5
(g6
g7
Ntp590
Rp591
(dp592
g11
(dp593
g13
I23
sg14
g15
sg16
VNewcastle
p594
ssbasS'28'
p595
(lp596
g5
(g6
g7
Ntp597
Rp598
(dp599
g11
(dp600
g13
I28
sg14
g15
sg16
VEverton
p601
ssbasS'29'
p602
(lp603
g5
(g6
g7
Ntp604
Rp605
(dp606
g11
(dp607
g13
I29
sg14
g31
sg16
VAston Villa
p608
ssbasg87
(lp609
g5
(g6
g7
Ntp610
Rp611
(dp612
g11
(dp613
g13
I1
sg14
g31
sg16
VStoke City
p614
ssbag5
(g6
g7
Ntp615
Rp616
(dp617
g11
(dp618
g13
I1
sg14
g15
sg16
VChelsea
p619
ssbasg94
(lp620
sg101
(lp621
sg108
(lp622
g5
(g6
g7
Ntp623
Rp624
(dp625
g11
(dp626
g13
I5
sg14
g15
sg16
VWest Brom
p627
ssbasg115
(lp628
g5
(g6
g7
Ntp629
Rp630
(dp631
g11
(dp632
g13
I4
sg14
g31
sg16
VTottenham
p633
ssbasg122
(lp634
g5
(g6
g7
Ntp635
Rp636
(dp637
g11
(dp638
g13
I7
sg14
g15
sg16
VSwansea
p639
ssbasg129
(lp640
g5
(g6
g7
Ntp641
Rp642
(dp643
g11
(dp644
g13
I6
sg14
g31
sg16
VNewcastle
p645
ssbasg136
(lp646
g5
(g6
g7
Ntp647
Rp648
(dp649
g11
(dp650
g13
I9
sg14
g31
sg16
VFulham
p651
ssbasg143
(lp652
g5
(g6
g7
Ntp653
Rp654
(dp655
g11
(dp656
g13
I8
sg14
g15
sg16
VLiverpool
p657
ssbasS'38'
p658
(lp659
g5
(g6
g7
Ntp660
Rp661
(dp662
g11
(dp663
g13
I38
sg14
g15
sg16
VWest Ham
p664
ssbasS'11'
p665
(lp666
g5
(g6
g7
Ntp667
Rp668
(dp669
g11
(dp670
g13
I11
sg14
g31
sg16
VNorwich
p671
ssbasS'10'
p672
(lp673
g5
(g6
g7
Ntp674
Rp675
(dp676
g11
(dp677
g13
I10
sg14
g15
sg16
VQPR
p678
ssbasS'13'
p679
(lp680
g5
(g6
g7
Ntp681
Rp682
(dp683
g11
(dp684
g13
I13
sg14
g15
sg16
VWigan
p685
ssbasS'12'
p686
(lp687
g5
(g6
g7
Ntp688
Rp689
(dp690
g11
(dp691
g13
I12
sg14
g31
sg16
VEverton
p692
ssbasS'15'
p693
(lp694
g5
(g6
g7
Ntp695
Rp696
(dp697
g11
(dp698
g13
I15
sg14
g31
sg16
VMan Utd
p699
ssbasS'14'
p700
(lp701
g5
(g6
g7
Ntp702
Rp703
(dp704
g11
(dp705
g13
I14
sg14
g15
sg16
VAston Villa
p706
ssbasS'17'
p707
(lp708
g5
(g6
g7
Ntp709
Rp710
(dp711
g11
(dp712
g13
I17
sg14
g31
sg16
VArsenal
p713
ssbasS'16'
p714
(lp715
g5
(g6
g7
Ntp716
Rp717
(dp718
g11
(dp719
g13
I16
sg14
g15
sg16
VSouthampton
p720
ssbag5
(g6
g7
Ntp721
Rp722
(dp723
g11
(dp724
g13
I16
sg14
g15
sg16
VSunderland
p725
ssbasS'19'
p726
(lp727
g5
(g6
g7
Ntp728
Rp729
(dp730
g11
(dp731
g13
I19
sg14
g31
sg16
VSwansea
p732
ssbasS'18'
p733
(lp734
g5
(g6
g7
Ntp735
Rp736
(dp737
g11
(dp738
g13
I18
sg14
g15
sg16
VMan City
p739
ssbasS'31'
p740
(lp741
g5
(g6
g7
Ntp742
Rp743
(dp744
g11
(dp745
g13
I31
sg14
g15
sg16
VArsenal
p746
ssbasS'30'
p747
(lp748
g5
(g6
g7
Ntp749
Rp750
(dp751
g11
(dp752
g13
I30
sg14
g15
sg16
VMan Utd
p753
ssbasS'37'
p754
(lp755
g5
(g6
g7
Ntp756
Rp757
(dp758
g11
(dp759
g13
I37
sg14
g31
sg16
VMan City
p760
ssbasS'36'
p761
(lp762
g5
(g6
g7
Ntp763
Rp764
(dp765
g11
(dp766
g13
I36
sg14
g15
sg16
VFulham
p767
ssbasS'35'
p768
(lp769
g5
(g6
g7
Ntp770
Rp771
(dp772
g11
(dp773
g13
I35
sg14
g31
sg16
VQPR
p774
ssbasS'34'
p775
(lp776
g5
(g6
g7
Ntp777
Rp778
(dp779
g11
(dp780
g13
I34
sg14
g15
sg16
VNorwich
p781
ssbasS'33'
p782
(lp783
g5
(g6
g7
Ntp784
Rp785
(dp786
g11
(dp787
g13
I33
sg14
g31
sg16
VLiverpool
p788
ssbasS'32'
p789
(lp790
g5
(g6
g7
Ntp791
Rp792
(dp793
g11
(dp794
g13
I32
sg14
g31
sg16
VSouthampton
p795
ssbassS'Fulham'
p796
(dp797
S'24'
p798
(lp799
g5
(g6
g7
Ntp800
Rp801
(dp802
g11
(dp803
g13
I24
sg14
g31
sg16
VWest Ham
p804
ssbasS'25'
p805
(lp806
g5
(g6
g7
Ntp807
Rp808
(dp809
g11
(dp810
g13
I25
sg14
g31
sg16
VMan Utd
p811
ssbasS'26'
p812
(lp813
g5
(g6
g7
Ntp814
Rp815
(dp816
g11
(dp817
g13
I26
sg14
g15
sg16
VNorwich
p818
ssbasS'27'
p819
(lp820
g5
(g6
g7
Ntp821
Rp822
(dp823
g11
(dp824
g13
I27
sg14
g31
sg16
VStoke City
p825
ssbasS'20'
p826
(lp827
g5
(g6
g7
Ntp828
Rp829
(dp830
g11
(dp831
g13
I20
sg14
g31
sg16
VSwansea
p832
ssbasS'21'
p833
(lp834
g5
(g6
g7
Ntp835
Rp836
(dp837
g11
(dp838
g13
I21
sg14
g15
sg16
VWest Brom
p839
ssbasS'22'
p840
(lp841
g5
(g6
g7
Ntp842
Rp843
(dp844
g11
(dp845
g13
I22
sg14
g31
sg16
VWigan
p846
ssbasS'23'
p847
(lp848
g5
(g6
g7
Ntp849
Rp850
(dp851
g11
(dp852
g13
I23
sg14
g15
sg16
VMan City
p853
ssbasS'28'
p854
(lp855
g5
(g6
g7
Ntp856
Rp857
(dp858
g11
(dp859
g13
I28
sg14
g15
sg16
VSunderland
p860
ssbasS'29'
p861
(lp862
sg87
(lp863
g5
(g6
g7
Ntp864
Rp865
(dp866
g11
(dp867
g13
I1
sg14
g31
sg16
VNorwich
p868
ssbasg94
(lp869
g5
(g6
g7
Ntp870
Rp871
(dp872
g11
(dp873
g13
I3
sg14
g15
sg16
VWest Ham
p874
ssbasg101
(lp875
g5
(g6
g7
Ntp876
Rp877
(dp878
g11
(dp879
g13
I2
sg14
g15
sg16
VMan Utd
p880
ssbasg108
(lp881
g5
(g6
g7
Ntp882
Rp883
(dp884
g11
(dp885
g13
I5
sg14
g15
sg16
VWigan
p886
ssbasg115
(lp887
g5
(g6
g7
Ntp888
Rp889
(dp890
g11
(dp891
g13
I4
sg14
g31
sg16
VWest Brom
p892
ssbasg122
(lp893
g5
(g6
g7
Ntp894
Rp895
(dp896
g11
(dp897
g13
I7
sg14
g15
sg16
VSouthampton
p898
ssbasg129
(lp899
g5
(g6
g7
Ntp900
Rp901
(dp902
g11
(dp903
g13
I6
sg14
g31
sg16
VMan City
p904
ssbasg136
(lp905
g5
(g6
g7
Ntp906
Rp907
(dp908
g11
(dp909
g13
I9
sg14
g15
sg16
VReading
p910
ssbasg143
(lp911
g5
(g6
g7
Ntp912
Rp913
(dp914
g11
(dp915
g13
I8
sg14
g31
sg16
VAston Villa
p916
ssbasS'38'
p917
(lp918
g5
(g6
g7
Ntp919
Rp920
(dp921
g11
(dp922
g13
I38
sg14
g15
sg16
VSwansea
p923
ssbasS'11'
p924
(lp925
g5
(g6
g7
Ntp926
Rp927
(dp928
g11
(dp929
g13
I11
sg14
g15
sg16
VArsenal
p930
ssbasS'10'
p931
(lp932
g5
(g6
g7
Ntp933
Rp934
(dp935
g11
(dp936
g13
I10
sg14
g31
sg16
VEverton
p937
ssbasS'13'
p938
(lp939
g5
(g6
g7
Ntp940
Rp941
(dp942
g11
(dp943
g13
I13
sg14
g15
sg16
VStoke City
p944
ssbasS'12'
p945
(lp946
g5
(g6
g7
Ntp947
Rp948
(dp949
g11
(dp950
g13
I12
sg14
g31
sg16
VSunderland
p951
ssbasS'15'
p952
(lp953
g5
(g6
g7
Ntp954
Rp955
(dp956
g11
(dp957
g13
I15
sg14
g31
sg16
VTottenham
p958
ssbasS'14'
p959
(lp960
g5
(g6
g7
Ntp961
Rp962
(dp963
g11
(dp964
g13
I14
sg14
g15
sg16
VChelsea
p965
ssbasS'17'
p966
(lp967
g5
(g6
g7
Ntp968
Rp969
(dp970
g11
(dp971
g13
I17
sg14
g15
sg16
VQPR
p972
ssbasS'16'
p973
(lp974
g5
(g6
g7
Ntp975
Rp976
(dp977
g11
(dp978
g13
I16
sg14
g31
sg16
VNewcastle
p979
ssbasS'19'
p980
(lp981
g5
(g6
g7
Ntp982
Rp983
(dp984
g11
(dp985
g13
I19
sg14
g31
sg16
VSouthampton
p986
ssbasS'18'
p987
(lp988
g5
(g6
g7
Ntp989
Rp990
(dp991
g11
(dp992
g13
I18
sg14
g15
sg16
VLiverpool
p993
ssbasS'31'
p994
(lp995
g5
(g6
g7
Ntp996
Rp997
(dp998
g11
(dp999
g13
I31
sg14
g31
sg16
VQPR
p1000
ssbasS'30'
p1001
(lp1002
g5
(g6
g7
Ntp1003
Rp1004
(dp1005
g11
(dp1006
g13
I30
sg14
g15
sg16
VTottenham
p1007
ssbasS'37'
p1008
(lp1009
g5
(g6
g7
Ntp1010
Rp1011
(dp1012
g11
(dp1013
g13
I37
sg14
g31
sg16
VLiverpool
p1014
ssbasS'36'
p1015
(lp1016
g5
(g6
g7
Ntp1017
Rp1018
(dp1019
g11
(dp1020
g13
I36
sg14
g31
sg16
VReading
p1021
ssbasS'35'
p1022
(lp1023
g5
(g6
g7
Ntp1024
Rp1025
(dp1026
g11
(dp1027
g13
I35
sg14
g15
sg16
VEverton
p1028
ssbasS'34'
p1029
(lp1030
g5
(g6
g7
Ntp1031
Rp1032
(dp1033
g11
(dp1034
g13
I34
sg14
g31
sg16
VArsenal
p1035
ssbasS'33'
p1036
(lp1037
g5
(g6
g7
Ntp1038
Rp1039
(dp1040
g11
(dp1041
g13
I33
sg14
g15
sg16
VAston Villa
p1042
ssbag5
(g6
g7
Ntp1043
Rp1044
(dp1045
g11
(dp1046
g13
I33
sg14
g31
sg16
VChelsea
p1047
ssbasS'32'
p1048
(lp1049
g5
(g6
g7
Ntp1050
Rp1051
(dp1052
g11
(dp1053
g13
I32
sg14
g15
sg16
VNewcastle
p1054
ssbassS'Norwich'
p1055
(dp1056
S'24'
p1057
(lp1058
g5
(g6
g7
Ntp1059
Rp1060
(dp1061
g11
(dp1062
g13
I24
sg14
g31
sg16
VTottenham
p1063
ssbasS'25'
p1064
(lp1065
g5
(g6
g7
Ntp1066
Rp1067
(dp1068
g11
(dp1069
g13
I25
sg14
g15
sg16
VQPR
p1070
ssbasS'26'
p1071
(lp1072
g5
(g6
g7
Ntp1073
Rp1074
(dp1075
g11
(dp1076
g13
I26
sg14
g31
sg16
VFulham
p1077
ssbasS'27'
p1078
(lp1079
g5
(g6
g7
Ntp1080
Rp1081
(dp1082
g11
(dp1083
g13
I27
sg14
g31
sg16
VEverton
p1084
ssbasS'20'
p1085
(lp1086
g5
(g6
g7
Ntp1087
Rp1088
(dp1089
g11
(dp1090
g13
I20
sg14
g31
sg16
VMan City
p1091
ssbasS'21'
p1092
(lp1093
g5
(g6
g7
Ntp1094
Rp1095
(dp1096
g11
(dp1097
g13
I21
sg14
g15
sg16
VWest Ham
p1098
ssbasS'22'
p1099
(lp1100
g5
(g6
g7
Ntp1101
Rp1102
(dp1103
g11
(dp1104
g13
I22
sg14
g31
sg16
VNewcastle
p1105
ssbasS'23'
p1106
(lp1107
g5
(g6
g7
Ntp1108
Rp1109
(dp1110
g11
(dp1111
g13
I23
sg14
g15
sg16
VLiverpool
p1112
ssbasS'28'
p1113
(lp1114
g5
(g6
g7
Ntp1115
Rp1116
(dp1117
g11
(dp1118
g13
I28
sg14
g15
sg16
VMan Utd
p1119
ssbasS'29'
p1120
(lp1121
g5
(g6
g7
Ntp1122
Rp1123
(dp1124
g11
(dp1125
g13
I29
sg14
g31
sg16
VSouthampton
p1126
ssbasg87
(lp1127
g5
(g6
g7
Ntp1128
Rp1129
(dp1130
g11
(dp1131
g13
I1
sg14
g15
sg16
VFulham
p1132
ssbasg94
(lp1133
g5
(g6
g7
Ntp1134
Rp1135
(dp1136
g11
(dp1137
g13
I3
sg14
g15
sg16
VTottenham
p1138
ssbasg101
(lp1139
g5
(g6
g7
Ntp1140
Rp1141
(dp1142
g11
(dp1143
g13
I2
sg14
g31
sg16
VQPR
p1144
ssbasg108
(lp1145
g5
(g6
g7
Ntp1146
Rp1147
(dp1148
g11
(dp1149
g13
I5
sg14
g15
sg16
VNewcastle
p1150
ssbasg115
(lp1151
g5
(g6
g7
Ntp1152
Rp1153
(dp1154
g11
(dp1155
g13
I4
sg14
g31
sg16
VWest Ham
p1156
ssbasg122
(lp1157
g5
(g6
g7
Ntp1158
Rp1159
(dp1160
g11
(dp1161
g13
I7
sg14
g15
sg16
VChelsea
p1162
ssbasg129
(lp1163
g5
(g6
g7
Ntp1164
Rp1165
(dp1166
g11
(dp1167
g13
I6
sg14
g31
sg16
VLiverpool
p1168
ssbasg136
(lp1169
g5
(g6
g7
Ntp1170
Rp1171
(dp1172
g11
(dp1173
g13
I9
sg14
g15
sg16
VAston Villa
p1174
ssbasg143
(lp1175
g5
(g6
g7
Ntp1176
Rp1177
(dp1178
g11
(dp1179
g13
I8
sg14
g31
sg16
VArsenal
p1180
ssbasS'38'
p1181
(lp1182
g5
(g6
g7
Ntp1183
Rp1184
(dp1185
g11
(dp1186
g13
I38
sg14
g15
sg16
VMan City
p1187
ssbasS'11'
p1188
(lp1189
g5
(g6
g7
Ntp1190
Rp1191
(dp1192
g11
(dp1193
g13
I11
sg14
g15
sg16
VReading
p1194
ssbasS'10'
p1195
(lp1196
g5
(g6
g7
Ntp1197
Rp1198
(dp1199
g11
(dp1200
g13
I10
sg14
g31
sg16
VStoke City
p1201
ssbasS'13'
p1202
(lp1203
g5
(g6
g7
Ntp1204
Rp1205
(dp1206
g11
(dp1207
g13
I13
sg14
g15
sg16
VEverton
p1208
ssbasS'12'
p1209
(lp1210
g5
(g6
g7
Ntp1211
Rp1212
(dp1213
g11
(dp1214
g13
I12
sg14
g31
sg16
VMan Utd
p1215
ssbasS'15'
p1216
(lp1217
g5
(g6
g7
Ntp1218
Rp1219
(dp1220
g11
(dp1221
g13
I15
sg14
g31
sg16
VSunderland
p1222
ssbasS'14'
p1223
(lp1224
g5
(g6
g7
Ntp1225
Rp1226
(dp1227
g11
(dp1228
g13
I14
sg14
g15
sg16
VSouthampton
p1229
ssbasS'17'
p1230
(lp1231
g5
(g6
g7
Ntp1232
Rp1233
(dp1234
g11
(dp1235
g13
I17
sg14
g31
sg16
VWigan
p1236
ssbasS'16'
p1237
(lp1238
g5
(g6
g7
Ntp1239
Rp1240
(dp1241
g11
(dp1242
g13
I16
sg14
g15
sg16
VSwansea
p1243
ssbasS'19'
p1244
(lp1245
g5
(g6
g7
Ntp1246
Rp1247
(dp1248
g11
(dp1249
g13
I19
sg14
g31
sg16
VChelsea
p1250
ssbasS'18'
p1251
(lp1252
g5
(g6
g7
Ntp1253
Rp1254
(dp1255
g11
(dp1256
g13
I18
sg14
g15
sg16
VWest Brom
p1257
ssbasS'31'
p1258
(lp1259
g5
(g6
g7
Ntp1260
Rp1261
(dp1262
g11
(dp1263
g13
I31
sg14
g15
sg16
VWigan
p1264
ssbasS'30'
p1265
(lp1266
g5
(g6
g7
Ntp1267
Rp1268
(dp1269
g11
(dp1270
g13
I30
sg14
g15
sg16
VSunderland
p1271
ssbasS'37'
p1272
(lp1273
g5
(g6
g7
Ntp1274
Rp1275
(dp1276
g11
(dp1277
g13
I37
sg14
g31
sg16
VWest Brom
p1278
ssbasS'36'
p1279
(lp1280
g5
(g6
g7
Ntp1281
Rp1282
(dp1283
g11
(dp1284
g13
I36
sg14
g31
sg16
VAston Villa
p1285
ssbasS'35'
p1286
(lp1287
g5
(g6
g7
Ntp1288
Rp1289
(dp1290
g11
(dp1291
g13
I35
sg14
g15
sg16
VStoke City
p1292
ssbasS'34'
p1293
(lp1294
g5
(g6
g7
Ntp1295
Rp1296
(dp1297
g11
(dp1298
g13
I34
sg14
g31
sg16
VReading
p1299
ssbasS'33'
p1300
(lp1301
g5
(g6
g7
Ntp1302
Rp1303
(dp1304
g11
(dp1305
g13
I33
sg14
g15
sg16
VArsenal
p1306
ssbasS'32'
p1307
(lp1308
g5
(g6
g7
Ntp1309
Rp1310
(dp1311
g11
(dp1312
g13
I32
sg14
g31
sg16
VSwansea
p1313
ssbassS'Man City'
p1314
(dp1315
S'24'
p1316
(lp1317
g5
(g6
g7
Ntp1318
Rp1319
(dp1320
g11
(dp1321
g13
I24
sg14
g15
sg16
VQPR
p1322
ssbasS'25'
p1323
(lp1324
g5
(g6
g7
Ntp1325
Rp1326
(dp1327
g11
(dp1328
g13
I25
sg14
g31
sg16
VLiverpool
p1329
ssbasS'26'
p1330
(lp1331
g5
(g6
g7
Ntp1332
Rp1333
(dp1334
g11
(dp1335
g13
I26
sg14
g15
sg16
VSouthampton
p1336
ssbasS'27'
p1337
(lp1338
g5
(g6
g7
Ntp1339
Rp1340
(dp1341
g11
(dp1342
g13
I27
sg14
g31
sg16
VChelsea
p1343
ssbasS'20'
p1344
(lp1345
g5
(g6
g7
Ntp1346
Rp1347
(dp1348
g11
(dp1349
g13
I20
sg14
g15
sg16
VNorwich
p1350
ssbasS'21'
p1351
(lp1352
g5
(g6
g7
Ntp1353
Rp1354
(dp1355
g11
(dp1356
g13
I21
sg14
g31
sg16
VStoke City
p1357
ssbasS'22'
p1358
(lp1359
g5
(g6
g7
Ntp1360
Rp1361
(dp1362
g11
(dp1363
g13
I22
sg14
g15
sg16
VArsenal
p1364
ssbasS'23'
p1365
(lp1366
g5
(g6
g7
Ntp1367
Rp1368
(dp1369
g11
(dp1370
g13
I23
sg14
g31
sg16
VFulham
p1371
ssbasS'28'
p1372
(lp1373
g5
(g6
g7
Ntp1374
Rp1375
(dp1376
g11
(dp1377
g13
I28
sg14
g15
sg16
VAston Villa
p1378
ssbasS'29'
p1379
(lp1380
sg87
(lp1381
g5
(g6
g7
Ntp1382
Rp1383
(dp1384
g11
(dp1385
g13
I1
sg14
g31
sg16
VSouthampton
p1386
ssbasg94
(lp1387
g5
(g6
g7
Ntp1388
Rp1389
(dp1390
g11
(dp1391
g13
I3
sg14
g31
sg16
VQPR
p1392
ssbasg101
(lp1393
g5
(g6
g7
Ntp1394
Rp1395
(dp1396
g11
(dp1397
g13
I2
sg14
g15
sg16
VLiverpool
p1398
ssbasg108
(lp1399
g5
(g6
g7
Ntp1400
Rp1401
(dp1402
g11
(dp1403
g13
I5
sg14
g31
sg16
VArsenal
p1404
ssbasg115
(lp1405
g5
(g6
g7
Ntp1406
Rp1407
(dp1408
g11
(dp1409
g13
I4
sg14
g15
sg16
VStoke City
p1410
ssbasg122
(lp1411
g5
(g6
g7
Ntp1412
Rp1413
(dp1414
g11
(dp1415
g13
I7
sg14
g31
sg16
VSunderland
p1416
ssbasg129
(lp1417
g5
(g6
g7
Ntp1418
Rp1419
(dp1420
g11
(dp1421
g13
I6
sg14
g15
sg16
VFulham
p1422
ssbasg136
(lp1423
g5
(g6
g7
Ntp1424
Rp1425
(dp1426
g11
(dp1427
g13
I9
sg14
g31
sg16
VSwansea
p1428
ssbasg143
(lp1429
g5
(g6
g7
Ntp1430
Rp1431
(dp1432
g11
(dp1433
g13
I8
sg14
g15
sg16
VWest Brom
p1434
ssbasS'38'
p1435
(lp1436
g5
(g6
g7
Ntp1437
Rp1438
(dp1439
g11
(dp1440
g13
I38
sg14
g31
sg16
VNorwich
p1441
ssbasS'11'
p1442
(lp1443
g5
(g6
g7
Ntp1444
Rp1445
(dp1446
g11
(dp1447
g13
I11
sg14
g31
sg16
VTottenham
p1448
ssbasS'10'
p1449
(lp1450
g5
(g6
g7
Ntp1451
Rp1452
(dp1453
g11
(dp1454
g13
I10
sg14
g15
sg16
VWest Ham
p1455
ssbasS'13'
p1456
(lp1457
g5
(g6
g7
Ntp1458
Rp1459
(dp1460
g11
(dp1461
g13
I13
sg14
g15
sg16
VChelsea
p1462
ssbasS'12'
p1463
(lp1464
g5
(g6
g7
Ntp1465
Rp1466
(dp1467
g11
(dp1468
g13
I12
sg14
g31
sg16
VAston Villa
p1469
ssbasS'15'
p1470
(lp1471
g5
(g6
g7
Ntp1472
Rp1473
(dp1474
g11
(dp1475
g13
I15
sg14
g31
sg16
VEverton
p1476
ssbasS'14'
p1477
(lp1478
g5
(g6
g7
Ntp1479
Rp1480
(dp1481
g11
(dp1482
g13
I14
sg14
g15
sg16
VWigan
p1483
ssbasS'17'
p1484
(lp1485
g5
(g6
g7
Ntp1486
Rp1487
(dp1488
g11
(dp1489
g13
I17
sg14
g15
sg16
VNewcastle
p1490
ssbasS'16'
p1491
(lp1492
g5
(g6
g7
Ntp1493
Rp1494
(dp1495
g11
(dp1496
g13
I16
sg14
g31
sg16
VMan Utd
p1497
ssbasS'19'
p1498
(lp1499
g5
(g6
g7
Ntp1500
Rp1501
(dp1502
g11
(dp1503
g13
I19
sg14
g15
sg16
VSunderland
p1504
ssbasS'18'
p1505
(lp1506
g5
(g6
g7
Ntp1507
Rp1508
(dp1509
g11
(dp1510
g13
I18
sg14
g31
sg16
VReading
p1511
ssbasS'31'
p1512
(lp1513
g5
(g6
g7
Ntp1514
Rp1515
(dp1516
g11
(dp1517
g13
I31
sg14
g31
sg16
VNewcastle
p1518
ssbasS'30'
p1519
(lp1520
g5
(g6
g7
Ntp1521
Rp1522
(dp1523
g11
(dp1524
g13
I30
sg14
g15
sg16
VEverton
p1525
ssbasS'37'
p1526
(lp1527
g5
(g6
g7
Ntp1528
Rp1529
(dp1530
g11
(dp1531
g13
I37
sg14
g15
sg16
VReading
p1532
ssbasS'36'
p1533
(lp1534
g5
(g6
g7
Ntp1535
Rp1536
(dp1537
g11
(dp1538
g13
I36
sg14
g15
sg16
VSwansea
p1539
ssbag5
(g6
g7
Ntp1540
Rp1541
(dp1542
g11
(dp1543
g13
I36
sg14
g31
sg16
VWest Brom
p1544
ssbasS'35'
p1545
(lp1546
g5
(g6
g7
Ntp1547
Rp1548
(dp1549
g11
(dp1550
g13
I35
sg14
g31
sg16
VWest Ham
p1551
ssbasS'34'
p1552
(lp1553
g5
(g6
g7
Ntp1554
Rp1555
(dp1556
g11
(dp1557
g13
I34
sg14
g15
sg16
VTottenham
p1558
ssbasS'33'
p1559
(lp1560
g5
(g6
g7
Ntp1561
Rp1562
(dp1563
g11
(dp1564
g13
I33
sg14
g31
sg16
VWigan
p1565
ssbasS'32'
p1566
(lp1567
g5
(g6
g7
Ntp1568
Rp1569
(dp1570
g11
(dp1571
g13
I32
sg14
g15
sg16
VMan Utd
p1572
ssbassS'West Ham'
p1573
(dp1574
S'24'
p1575
(lp1576
g5
(g6
g7
Ntp1577
Rp1578
(dp1579
g11
(dp1580
g13
I24
sg14
g15
sg16
VFulham
p1581
ssbasS'25'
p1582
(lp1583
g5
(g6
g7
Ntp1584
Rp1585
(dp1586
g11
(dp1587
g13
I25
sg14
g31
sg16
VSwansea
p1588
ssbasS'26'
p1589
(lp1590
g5
(g6
g7
Ntp1591
Rp1592
(dp1593
g11
(dp1594
g13
I26
sg14
g15
sg16
VAston Villa
p1595
ssbasS'27'
p1596
(lp1597
g5
(g6
g7
Ntp1598
Rp1599
(dp1600
g11
(dp1601
g13
I27
sg14
g31
sg16
VTottenham
p1602
ssbasS'20'
p1603
(lp1604
g5
(g6
g7
Ntp1605
Rp1606
(dp1607
g11
(dp1608
g13
I20
sg14
g15
sg16
VReading
p1609
ssbasS'21'
p1610
(lp1611
g5
(g6
g7
Ntp1612
Rp1613
(dp1614
g11
(dp1615
g13
I21
sg14
g31
sg16
VNorwich
p1616
ssbasS'22'
p1617
(lp1618
g5
(g6
g7
Ntp1619
Rp1620
(dp1621
g11
(dp1622
g13
I22
sg14
g15
sg16
VSunderland
p1623
ssbasS'23'
p1624
(lp1625
g5
(g6
g7
Ntp1626
Rp1627
(dp1628
g11
(dp1629
g13
I23
sg14
g31
sg16
VQPR
p1630
ssbag5
(g6
g7
Ntp1631
Rp1632
(dp1633
g11
(dp1634
g13
I23
sg14
g15
sg16
VArsenal
p1635
ssbasS'28'
p1636
(lp1637
g5
(g6
g7
Ntp1638
Rp1639
(dp1640
g11
(dp1641
g13
I28
sg14
g15
sg16
VStoke City
p1642
ssbasS'29'
p1643
(lp1644
sg87
(lp1645
g5
(g6
g7
Ntp1646
Rp1647
(dp1648
g11
(dp1649
g13
I1
sg14
g31
sg16
VAston Villa
p1650
ssbasg94
(lp1651
g5
(g6
g7
Ntp1652
Rp1653
(dp1654
g11
(dp1655
g13
I3
sg14
g31
sg16
VFulham
p1656
ssbasg101
(lp1657
g5
(g6
g7
Ntp1658
Rp1659
(dp1660
g11
(dp1661
g13
I2
sg14
g15
sg16
VSwansea
p1662
ssbasg108
(lp1663
g5
(g6
g7
Ntp1664
Rp1665
(dp1666
g11
(dp1667
g13
I5
sg14
g31
sg16
VSunderland
p1668
ssbasg115
(lp1669
g5
(g6
g7
Ntp1670
Rp1671
(dp1672
g11
(dp1673
g13
I4
sg14
g15
sg16
VNorwich
p1674
ssbasg122
(lp1675
g5
(g6
g7
Ntp1676
Rp1677
(dp1678
g11
(dp1679
g13
I7
sg14
g31
sg16
VArsenal
p1680
ssbasg129
(lp1681
g5
(g6
g7
Ntp1682
Rp1683
(dp1684
g11
(dp1685
g13
I6
sg14
g15
sg16
VQPR
p1686
ssbasg136
(lp1687
g5
(g6
g7
Ntp1688
Rp1689
(dp1690
g11
(dp1691
g13
I9
sg14
g15
sg16
VWigan
p1692
ssbasg143
(lp1693
g5
(g6
g7
Ntp1694
Rp1695
(dp1696
g11
(dp1697
g13
I8
sg14
g31
sg16
VSouthampton
p1698
ssbasS'38'
p1699
(lp1700
g5
(g6
g7
Ntp1701
Rp1702
(dp1703
g11
(dp1704
g13
I38
sg14
g31
sg16
VReading
p1705
ssbasS'11'
p1706
(lp1707
g5
(g6
g7
Ntp1708
Rp1709
(dp1710
g11
(dp1711
g13
I11
sg14
g15
sg16
VNewcastle
p1712
ssbasS'10'
p1713
(lp1714
g5
(g6
g7
Ntp1715
Rp1716
(dp1717
g11
(dp1718
g13
I10
sg14
g31
sg16
VMan City
p1719
ssbasS'13'
p1720
(lp1721
g5
(g6
g7
Ntp1722
Rp1723
(dp1724
g11
(dp1725
g13
I13
sg14
g15
sg16
VTottenham
p1726
ssbasS'12'
p1727
(lp1728
g5
(g6
g7
Ntp1729
Rp1730
(dp1731
g11
(dp1732
g13
I12
sg14
g31
sg16
VStoke City
p1733
ssbasS'15'
p1734
(lp1735
g5
(g6
g7
Ntp1736
Rp1737
(dp1738
g11
(dp1739
g13
I15
sg14
g31
sg16
VChelsea
p1740
ssbasS'14'
p1741
(lp1742
g5
(g6
g7
Ntp1743
Rp1744
(dp1745
g11
(dp1746
g13
I14
sg14
g15
sg16
VMan Utd
p1747
ssbasS'17'
p1748
(lp1749
g5
(g6
g7
Ntp1750
Rp1751
(dp1752
g11
(dp1753
g13
I17
sg14
g15
sg16
VWest Brom
p1754
ssbasS'16'
p1755
(lp1756
g5
(g6
g7
Ntp1757
Rp1758
(dp1759
g11
(dp1760
g13
I16
sg14
g31
sg16
VLiverpool
p1761
ssbasS'19'
p1762
(lp1763
sS'18'
p1764
(lp1765
g5
(g6
g7
Ntp1766
Rp1767
(dp1768
g11
(dp1769
g13
I18
sg14
g31
sg16
VEverton
p1770
ssbasS'31'
p1771
(lp1772
g5
(g6
g7
Ntp1773
Rp1774
(dp1775
g11
(dp1776
g13
I31
sg14
g31
sg16
VWest Brom
p1777
ssbasS'30'
p1778
(lp1779
g5
(g6
g7
Ntp1780
Rp1781
(dp1782
g11
(dp1783
g13
I30
sg14
g15
sg16
VChelsea
p1784
ssbasS'37'
p1785
(lp1786
g5
(g6
g7
Ntp1787
Rp1788
(dp1789
g11
(dp1790
g13
I37
sg14
g15
sg16
VEverton
p1791
ssbasS'36'
p1792
(lp1793
g5
(g6
g7
Ntp1794
Rp1795
(dp1796
g11
(dp1797
g13
I36
sg14
g31
sg16
VNewcastle
p1798
ssbasS'35'
p1799
(lp1800
g5
(g6
g7
Ntp1801
Rp1802
(dp1803
g11
(dp1804
g13
I35
sg14
g15
sg16
VMan City
p1805
ssbasS'34'
p1806
(lp1807
g5
(g6
g7
Ntp1808
Rp1809
(dp1810
g11
(dp1811
g13
I34
sg14
g31
sg16
VWigan
p1812
ssbasS'33'
p1813
(lp1814
g5
(g6
g7
Ntp1815
Rp1816
(dp1817
g11
(dp1818
g13
I33
sg14
g15
sg16
VSouthampton
p1819
ssbag5
(g6
g7
Ntp1820
Rp1821
(dp1822
g11
(dp1823
g13
I33
sg14
g31
sg16
VMan Utd
p1824
ssbasS'32'
p1825
(lp1826
g5
(g6
g7
Ntp1827
Rp1828
(dp1829
g11
(dp1830
g13
I32
sg14
g15
sg16
VLiverpool
p1831
ssbassS'Stoke City'
p1832
(dp1833
S'24'
p1834
(lp1835
g5
(g6
g7
Ntp1836
Rp1837
(dp1838
g11
(dp1839
g13
I24
sg14
g31
sg16
VWigan
p1840
ssbasS'25'
p1841
(lp1842
g5
(g6
g7
Ntp1843
Rp1844
(dp1845
g11
(dp1846
g13
I25
sg14
g15
sg16
VArsenal
p1847
ssbasS'26'
p1848
(lp1849
g5
(g6
g7
Ntp1850
Rp1851
(dp1852
g11
(dp1853
g13
I26
sg14
g31
sg16
VReading
p1854
ssbasS'27'
p1855
(lp1856
g5
(g6
g7
Ntp1857
Rp1858
(dp1859
g11
(dp1860
g13
I27
sg14
g15
sg16
VFulham
p1861
ssbasS'20'
p1862
(lp1863
g5
(g6
g7
Ntp1864
Rp1865
(dp1866
g11
(dp1867
g13
I20
sg14
g31
sg16
VSouthampton
p1868
ssbasS'21'
p1869
(lp1870
g5
(g6
g7
Ntp1871
Rp1872
(dp1873
g11
(dp1874
g13
I21
sg14
g15
sg16
VMan City
p1875
ssbasS'22'
p1876
(lp1877
g5
(g6
g7
Ntp1878
Rp1879
(dp1880
g11
(dp1881
g13
I22
sg14
g31
sg16
VChelsea
p1882
ssbasS'23'
p1883
(lp1884
g5
(g6
g7
Ntp1885
Rp1886
(dp1887
g11
(dp1888
g13
I23
sg14
g15
sg16
VSwansea
p1889
ssbasS'28'
p1890
(lp1891
g5
(g6
g7
Ntp1892
Rp1893
(dp1894
g11
(dp1895
g13
I28
sg14
g31
sg16
VWest Ham
p1896
ssbasS'29'
p1897
(lp1898
g5
(g6
g7
Ntp1899
Rp1900
(dp1901
g11
(dp1902
g13
I29
sg14
g15
sg16
VNewcastle
p1903
ssbasg87
(lp1904
g5
(g6
g7
Ntp1905
Rp1906
(dp1907
g11
(dp1908
g13
I1
sg14
g15
sg16
VReading
p1909
ssbasg94
(lp1910
g5
(g6
g7
Ntp1911
Rp1912
(dp1913
g11
(dp1914
g13
I3
sg14
g15
sg16
VWigan
p1915
ssbasg101
(lp1916
g5
(g6
g7
Ntp1917
Rp1918
(dp1919
g11
(dp1920
g13
I2
sg14
g31
sg16
VArsenal
p1921
ssbasg108
(lp1922
g5
(g6
g7
Ntp1923
Rp1924
(dp1925
g11
(dp1926
g13
I5
sg14
g15
sg16
VChelsea
p1927
ssbasg115
(lp1928
g5
(g6
g7
Ntp1929
Rp1930
(dp1931
g11
(dp1932
g13
I4
sg14
g31
sg16
VMan City
p1933
ssbasg122
(lp1934
g5
(g6
g7
Ntp1935
Rp1936
(dp1937
g11
(dp1938
g13
I7
sg14
g15
sg16
VLiverpool
p1939
ssbasg129
(lp1940
g5
(g6
g7
Ntp1941
Rp1942
(dp1943
g11
(dp1944
g13
I6
sg14
g31
sg16
VSwansea
p1945
ssbasg136
(lp1946
g5
(g6
g7
Ntp1947
Rp1948
(dp1949
g11
(dp1950
g13
I9
sg14
g31
sg16
VSunderland
p1951
ssbasg143
(lp1952
g5
(g6
g7
Ntp1953
Rp1954
(dp1955
g11
(dp1956
g13
I8
sg14
g15
sg16
VMan Utd
p1957
ssbasS'38'
p1958
(lp1959
g5
(g6
g7
Ntp1960
Rp1961
(dp1962
g11
(dp1963
g13
I38
sg14
g15
sg16
VSouthampton
p1964
ssbasS'11'
p1965
(lp1966
g5
(g6
g7
Ntp1967
Rp1968
(dp1969
g11
(dp1970
g13
I11
sg14
g31
sg16
VQPR
p1971
ssbasS'10'
p1972
(lp1973
g5
(g6
g7
Ntp1974
Rp1975
(dp1976
g11
(dp1977
g13
I10
sg14
g15
sg16
VNorwich
p1978
ssbasS'13'
p1979
(lp1980
g5
(g6
g7
Ntp1981
Rp1982
(dp1983
g11
(dp1984
g13
I13
sg14
g31
sg16
VFulham
p1985
ssbasS'12'
p1986
(lp1987
g5
(g6
g7
Ntp1988
Rp1989
(dp1990
g11
(dp1991
g13
I12
sg14
g15
sg16
VWest Ham
p1992
ssbasS'15'
p1993
(lp1994
g5
(g6
g7
Ntp1995
Rp1996
(dp1997
g11
(dp1998
g13
I15
sg14
g15
sg16
VWest Brom
p1999
ssbasS'14'
p2000
(lp2001
g5
(g6
g7
Ntp2002
Rp2003
(dp2004
g11
(dp2005
g13
I14
sg14
g31
sg16
VNewcastle
p2006
ssbasS'17'
p2007
(lp2008
g5
(g6
g7
Ntp2009
Rp2010
(dp2011
g11
(dp2012
g13
I17
sg14
g31
sg16
VEverton
p2013
ssbasS'16'
p2014
(lp2015
g5
(g6
g7
Ntp2016
Rp2017
(dp2018
g11
(dp2019
g13
I16
sg14
g15
sg16
VAston Villa
p2020
ssbasS'19'
p2021
(lp2022
g5
(g6
g7
Ntp2023
Rp2024
(dp2025
g11
(dp2026
g13
I19
sg14
g31
sg16
VLiverpool
p2027
ssbasS'18'
p2028
(lp2029
g5
(g6
g7
Ntp2030
Rp2031
(dp2032
g11
(dp2033
g13
I18
sg14
g15
sg16
VTottenham
p2034
ssbasS'31'
p2035
(lp2036
g5
(g6
g7
Ntp2037
Rp2038
(dp2039
g11
(dp2040
g13
I31
sg14
g15
sg16
VEverton
p2041
ssbasS'30'
p2042
(lp2043
g5
(g6
g7
Ntp2044
Rp2045
(dp2046
g11
(dp2047
g13
I30
sg14
g31
sg16
VWest Brom
p2048
ssbasS'37'
p2049
(lp2050
g5
(g6
g7
Ntp2051
Rp2052
(dp2053
g11
(dp2054
g13
I37
sg14
g31
sg16
VTottenham
p2055
ssbasS'36'
p2056
(lp2057
g5
(g6
g7
Ntp2058
Rp2059
(dp2060
g11
(dp2061
g13
I36
sg14
g15
sg16
VSunderland
p2062
ssbasS'35'
p2063
(lp2064
g5
(g6
g7
Ntp2065
Rp2066
(dp2067
g11
(dp2068
g13
I35
sg14
g31
sg16
VNorwich
p2069
ssbasS'34'
p2070
(lp2071
g5
(g6
g7
Ntp2072
Rp2073
(dp2074
g11
(dp2075
g13
I34
sg14
g15
sg16
VQPR
p2076
ssbasS'33'
p2077
(lp2078
g5
(g6
g7
Ntp2079
Rp2080
(dp2081
g11
(dp2082
g13
I33
sg14
g31
sg16
VMan Utd
p2083
ssbasS'32'
p2084
(lp2085
g5
(g6
g7
Ntp2086
Rp2087
(dp2088
g11
(dp2089
g13
I32
sg14
g31
sg16
VAston Villa
p2090
ssbassS'Aston Villa'
p2091
(dp2092
S'24'
p2093
(lp2094
g5
(g6
g7
Ntp2095
Rp2096
(dp2097
g11
(dp2098
g13
I24
sg14
g31
sg16
VNewcastle
p2099
ssbasS'25'
p2100
(lp2101
g5
(g6
g7
Ntp2102
Rp2103
(dp2104
g11
(dp2105
g13
I25
sg14
g15
sg16
VEverton
p2106
ssbasS'26'
p2107
(lp2108
g5
(g6
g7
Ntp2109
Rp2110
(dp2111
g11
(dp2112
g13
I26
sg14
g31
sg16
VWest Ham
p2113
ssbasS'27'
p2114
(lp2115
g5
(g6
g7
Ntp2116
Rp2117
(dp2118
g11
(dp2119
g13
I27
sg14
g15
sg16
VArsenal
p2120
ssbasS'20'
p2121
(lp2122
g5
(g6
g7
Ntp2123
Rp2124
(dp2125
g11
(dp2126
g13
I20
sg14
g31
sg16
VWigan
p2127
ssbasS'21'
p2128
(lp2129
g5
(g6
g7
Ntp2130
Rp2131
(dp2132
g11
(dp2133
g13
I21
sg14
g15
sg16
VSwansea
p2134
ssbasS'22'
p2135
(lp2136
g5
(g6
g7
Ntp2137
Rp2138
(dp2139
g11
(dp2140
g13
I22
sg14
g31
sg16
VSouthampton
p2141
ssbasS'23'
p2142
(lp2143
g5
(g6
g7
Ntp2144
Rp2145
(dp2146
g11
(dp2147
g13
I23
sg14
g15
sg16
VWest Brom
p2148
ssbasS'28'
p2149
(lp2150
g5
(g6
g7
Ntp2151
Rp2152
(dp2153
g11
(dp2154
g13
I28
sg14
g31
sg16
VMan City
p2155
ssbasS'29'
p2156
(lp2157
g5
(g6
g7
Ntp2158
Rp2159
(dp2160
g11
(dp2161
g13
I29
sg14
g15
sg16
VReading
p2162
ssbasg87
(lp2163
g5
(g6
g7
Ntp2164
Rp2165
(dp2166
g11
(dp2167
g13
I1
sg14
g15
sg16
VWest Ham
p2168
ssbasg94
(lp2169
g5
(g6
g7
Ntp2170
Rp2171
(dp2172
g11
(dp2173
g13
I3
sg14
g15
sg16
VNewcastle
p2174
ssbasg101
(lp2175
g5
(g6
g7
Ntp2176
Rp2177
(dp2178
g11
(dp2179
g13
I2
sg14
g31
sg16
VEverton
p2180
ssbasg108
(lp2181
g5
(g6
g7
Ntp2182
Rp2183
(dp2184
g11
(dp2185
g13
I5
sg14
g15
sg16
VSouthampton
p2186
ssbasg115
(lp2187
g5
(g6
g7
Ntp2188
Rp2189
(dp2190
g11
(dp2191
g13
I4
sg14
g31
sg16
VSwansea
p2192
ssbasg122
(lp2193
g5
(g6
g7
Ntp2194
Rp2195
(dp2196
g11
(dp2197
g13
I7
sg14
g15
sg16
VTottenham
p2198
ssbasg129
(lp2199
g5
(g6
g7
Ntp2200
Rp2201
(dp2202
g11
(dp2203
g13
I6
sg14
g31
sg16
VWest Brom
p2204
ssbasg136
(lp2205
g5
(g6
g7
Ntp2206
Rp2207
(dp2208
g11
(dp2209
g13
I9
sg14
g31
sg16
VNorwich
p2210
ssbasg143
(lp2211
g5
(g6
g7
Ntp2212
Rp2213
(dp2214
g11
(dp2215
g13
I8
sg14
g15
sg16
VFulham
p2216
ssbasS'38'
p2217
(lp2218
g5
(g6
g7
Ntp2219
Rp2220
(dp2221
g11
(dp2222
g13
I38
sg14
g15
sg16
VWigan
p2223
ssbasS'11'
p2224
(lp2225
g5
(g6
g7
Ntp2226
Rp2227
(dp2228
g11
(dp2229
g13
I11
sg14
g31
sg16
VMan Utd
p2230
ssbasS'10'
p2231
(lp2232
g5
(g6
g7
Ntp2233
Rp2234
(dp2235
g11
(dp2236
g13
I10
sg14
g15
sg16
VSunderland
p2237
ssbasS'13'
p2238
(lp2239
g5
(g6
g7
Ntp2240
Rp2241
(dp2242
g11
(dp2243
g13
I13
sg14
g31
sg16
VArsenal
p2244
ssbasS'12'
p2245
(lp2246
g5
(g6
g7
Ntp2247
Rp2248
(dp2249
g11
(dp2250
g13
I12
sg14
g15
sg16
VMan City
p2251
ssbasS'15'
p2252
(lp2253
g5
(g6
g7
Ntp2254
Rp2255
(dp2256
g11
(dp2257
g13
I15
sg14
g15
sg16
VQPR
p2258
ssbasS'14'
p2259
(lp2260
g5
(g6
g7
Ntp2261
Rp2262
(dp2263
g11
(dp2264
g13
I14
sg14
g31
sg16
VReading
p2265
ssbasS'17'
p2266
(lp2267
g5
(g6
g7
Ntp2268
Rp2269
(dp2270
g11
(dp2271
g13
I17
sg14
g15
sg16
VLiverpool
p2272
ssbasS'16'
p2273
(lp2274
g5
(g6
g7
Ntp2275
Rp2276
(dp2277
g11
(dp2278
g13
I16
sg14
g31
sg16
VStoke City
p2279
ssbasS'19'
p2280
(lp2281
g5
(g6
g7
Ntp2282
Rp2283
(dp2284
g11
(dp2285
g13
I19
sg14
g31
sg16
VTottenham
p2286
ssbasS'18'
p2287
(lp2288
g5
(g6
g7
Ntp2289
Rp2290
(dp2291
g11
(dp2292
g13
I18
sg14
g15
sg16
VChelsea
p2293
ssbasS'31'
p2294
(lp2295
g5
(g6
g7
Ntp2296
Rp2297
(dp2298
g11
(dp2299
g13
I31
sg14
g31
sg16
VLiverpool
p2300
ssbasS'30'
p2301
(lp2302
g5
(g6
g7
Ntp2303
Rp2304
(dp2305
g11
(dp2306
g13
I30
sg14
g31
sg16
VQPR
p2307
ssbasS'37'
p2308
(lp2309
g5
(g6
g7
Ntp2310
Rp2311
(dp2312
g11
(dp2313
g13
I37
sg14
g31
sg16
VChelsea
p2314
ssbasS'36'
p2315
(lp2316
g5
(g6
g7
Ntp2317
Rp2318
(dp2319
g11
(dp2320
g13
I36
sg14
g15
sg16
VNorwich
p2321
ssbasS'35'
p2322
(lp2323
g5
(g6
g7
Ntp2324
Rp2325
(dp2326
g11
(dp2327
g13
I35
sg14
g31
sg16
VSunderland
p2328
ssbasS'34'
p2329
(lp2330
g5
(g6
g7
Ntp2331
Rp2332
(dp2333
g11
(dp2334
g13
I34
sg14
g15
sg16
VMan Utd
p2335
ssbasS'33'
p2336
(lp2337
g5
(g6
g7
Ntp2338
Rp2339
(dp2340
g11
(dp2341
g13
I33
sg14
g31
sg16
VFulham
p2342
ssbasS'32'
p2343
(lp2344
g5
(g6
g7
Ntp2345
Rp2346
(dp2347
g11
(dp2348
g13
I32
sg14
g15
sg16
VStoke City
p2349
ssbassS'Arsenal'
p2350
(dp2351
S'24'
p2352
(lp2353
g5
(g6
g7
Ntp2354
Rp2355
(dp2356
g11
(dp2357
g13
I24
sg14
g31
sg16
VLiverpool
p2358
ssbasS'25'
p2359
(lp2360
g5
(g6
g7
Ntp2361
Rp2362
(dp2363
g11
(dp2364
g13
I25
sg14
g31
sg16
VStoke City
p2365
ssbasS'26'
p2366
(lp2367
g5
(g6
g7
Ntp2368
Rp2369
(dp2370
g11
(dp2371
g13
I26
sg14
g15
sg16
VSunderland
p2372
ssbasS'27'
p2373
(lp2374
g5
(g6
g7
Ntp2375
Rp2376
(dp2377
g11
(dp2378
g13
I27
sg14
g31
sg16
VAston Villa
p2379
ssbasS'20'
p2380
(lp2381
g5
(g6
g7
Ntp2382
Rp2383
(dp2384
g11
(dp2385
g13
I20
sg14
g31
sg16
VNewcastle
p2386
ssbasS'21'
p2387
(lp2388
g5
(g6
g7
Ntp2389
Rp2390
(dp2391
g11
(dp2392
g13
I21
sg14
g15
sg16
VSouthampton
p2393
ssbasS'22'
p2394
(lp2395
g5
(g6
g7
Ntp2396
Rp2397
(dp2398
g11
(dp2399
g13
I22
sg14
g31
sg16
VMan City
p2400
ssbasS'23'
p2401
(lp2402
g5
(g6
g7
Ntp2403
Rp2404
(dp2405
g11
(dp2406
g13
I23
sg14
g15
sg16
VChelsea
p2407
ssbag5
(g6
g7
Ntp2408
Rp2409
(dp2410
g11
(dp2411
g13
I23
sg14
g31
sg16
VWest Ham
p2412
ssbasS'28'
p2413
(lp2414
g5
(g6
g7
Ntp2415
Rp2416
(dp2417
g11
(dp2418
g13
I28
sg14
g15
sg16
VTottenham
p2419
ssbasS'29'
p2420
(lp2421
sg87
(lp2422
g5
(g6
g7
Ntp2423
Rp2424
(dp2425
g11
(dp2426
g13
I1
sg14
g31
sg16
VSunderland
p2427
ssbasg94
(lp2428
g5
(g6
g7
Ntp2429
Rp2430
(dp2431
g11
(dp2432
g13
I3
sg14
g15
sg16
VLiverpool
p2433
ssbasg101
(lp2434
g5
(g6
g7
Ntp2435
Rp2436
(dp2437
g11
(dp2438
g13
I2
sg14
g15
sg16
VStoke City
p2439
ssbasg108
(lp2440
g5
(g6
g7
Ntp2441
Rp2442
(dp2443
g11
(dp2444
g13
I5
sg14
g15
sg16
VMan City
p2445
ssbasg115
(lp2446
g5
(g6
g7
Ntp2447
Rp2448
(dp2449
g11
(dp2450
g13
I4
sg14
g31
sg16
VSouthampton
p2451
ssbasg122
(lp2452
g5
(g6
g7
Ntp2453
Rp2454
(dp2455
g11
(dp2456
g13
I7
sg14
g15
sg16
VWest Ham
p2457
ssbasg129
(lp2458
g5
(g6
g7
Ntp2459
Rp2460
(dp2461
g11
(dp2462
g13
I6
sg14
g31
sg16
VChelsea
p2463
ssbasg136
(lp2464
g5
(g6
g7
Ntp2465
Rp2466
(dp2467
g11
(dp2468
g13
I9
sg14
g31
sg16
VQPR
p2469
ssbasg143
(lp2470
g5
(g6
g7
Ntp2471
Rp2472
(dp2473
g11
(dp2474
g13
I8
sg14
g15
sg16
VNorwich
p2475
ssbasS'38'
p2476
(lp2477
g5
(g6
g7
Ntp2478
Rp2479
(dp2480
g11
(dp2481
g13
I38
sg14
g15
sg16
VNewcastle
p2482
ssbasS'11'
p2483
(lp2484
g5
(g6
g7
Ntp2485
Rp2486
(dp2487
g11
(dp2488
g13
I11
sg14
g31
sg16
VFulham
p2489
ssbasS'10'
p2490
(lp2491
g5
(g6
g7
Ntp2492
Rp2493
(dp2494
g11
(dp2495
g13
I10
sg14
g15
sg16
VMan Utd
p2496
ssbasS'13'
p2497
(lp2498
g5
(g6
g7
Ntp2499
Rp2500
(dp2501
g11
(dp2502
g13
I13
sg14
g15
sg16
VAston Villa
p2503
ssbasS'12'
p2504
(lp2505
g5
(g6
g7
Ntp2506
Rp2507
(dp2508
g11
(dp2509
g13
I12
sg14
g31
sg16
VTottenham
p2510
ssbasS'15'
p2511
(lp2512
g5
(g6
g7
Ntp2513
Rp2514
(dp2515
g11
(dp2516
g13
I15
sg14
g31
sg16
VSwansea
p2517
ssbasS'14'
p2518
(lp2519
g5
(g6
g7
Ntp2520
Rp2521
(dp2522
g11
(dp2523
g13
I14
sg14
g15
sg16
VEverton
p2524
ssbasS'17'
p2525
(lp2526
g5
(g6
g7
Ntp2527
Rp2528
(dp2529
g11
(dp2530
g13
I17
sg14
g15
sg16
VReading
p2531
ssbasS'16'
p2532
(lp2533
g5
(g6
g7
Ntp2534
Rp2535
(dp2536
g11
(dp2537
g13
I16
sg14
g31
sg16
VWest Brom
p2538
ssbasS'19'
p2539
(lp2540
sS'18'
p2541
(lp2542
g5
(g6
g7
Ntp2543
Rp2544
(dp2545
g11
(dp2546
g13
I18
sg14
g15
sg16
VWigan
p2547
ssbasS'31'
p2548
(lp2549
g5
(g6
g7
Ntp2550
Rp2551
(dp2552
g11
(dp2553
g13
I31
sg14
g31
sg16
VReading
p2554
ssbasS'30'
p2555
(lp2556
g5
(g6
g7
Ntp2557
Rp2558
(dp2559
g11
(dp2560
g13
I30
sg14
g15
sg16
VSwansea
p2561
ssbasS'37'
p2562
(lp2563
g5
(g6
g7
Ntp2564
Rp2565
(dp2566
g11
(dp2567
g13
I37
sg14
g31
sg16
VWigan
p2568
ssbasS'36'
p2569
(lp2570
g5
(g6
g7
Ntp2571
Rp2572
(dp2573
g11
(dp2574
g13
I36
sg14
g15
sg16
VQPR
p2575
ssbasS'35'
p2576
(lp2577
g5
(g6
g7
Ntp2578
Rp2579
(dp2580
g11
(dp2581
g13
I35
sg14
g31
sg16
VMan Utd
p2582
ssbasS'34'
p2583
(lp2584
g5
(g6
g7
Ntp2585
Rp2586
(dp2587
g11
(dp2588
g13
I34
sg14
g15
sg16
VFulham
p2589
ssbasS'33'
p2590
(lp2591
g5
(g6
g7
Ntp2592
Rp2593
(dp2594
g11
(dp2595
g13
I33
sg14
g31
sg16
VNorwich
p2596
ssbag5
(g6
g7
Ntp2597
Rp2598
(dp2599
g11
(dp2600
g13
I33
sg14
g31
sg16
VEverton
p2601
ssbasS'32'
p2602
(lp2603
g5
(g6
g7
Ntp2604
Rp2605
(dp2606
g11
(dp2607
g13
I32
sg14
g15
sg16
VWest Brom
p2608
ssbassS'Man Utd'
p2609
(dp2610
S'24'
p2611
(lp2612
g5
(g6
g7
Ntp2613
Rp2614
(dp2615
g11
(dp2616
g13
I24
sg14
g31
sg16
VSouthampton
p2617
ssbasS'25'
p2618
(lp2619
g5
(g6
g7
Ntp2620
Rp2621
(dp2622
g11
(dp2623
g13
I25
sg14
g15
sg16
VFulham
p2624
ssbasS'26'
p2625
(lp2626
g5
(g6
g7
Ntp2627
Rp2628
(dp2629
g11
(dp2630
g13
I26
sg14
g31
sg16
VEverton
p2631
ssbasS'27'
p2632
(lp2633
g5
(g6
g7
Ntp2634
Rp2635
(dp2636
g11
(dp2637
g13
I27
sg14
g15
sg16
VQPR
p2638
ssbasS'20'
p2639
(lp2640
g5
(g6
g7
Ntp2641
Rp2642
(dp2643
g11
(dp2644
g13
I20
sg14
g31
sg16
VWest Brom
p2645
ssbasS'21'
p2646
(lp2647
g5
(g6
g7
Ntp2648
Rp2649
(dp2650
g11
(dp2651
g13
I21
sg14
g15
sg16
VWigan
p2652
ssbasS'22'
p2653
(lp2654
g5
(g6
g7
Ntp2655
Rp2656
(dp2657
g11
(dp2658
g13
I22
sg14
g31
sg16
VLiverpool
p2659
ssbasS'23'
p2660
(lp2661
g5
(g6
g7
Ntp2662
Rp2663
(dp2664
g11
(dp2665
g13
I23
sg14
g15
sg16
VTottenham
p2666
ssbasS'28'
p2667
(lp2668
g5
(g6
g7
Ntp2669
Rp2670
(dp2671
g11
(dp2672
g13
I28
sg14
g31
sg16
VNorwich
p2673
ssbasS'29'
p2674
(lp2675
sg87
(lp2676
g5
(g6
g7
Ntp2677
Rp2678
(dp2679
g11
(dp2680
g13
I1
sg14
g15
sg16
VEverton
p2681
ssbasg94
(lp2682
g5
(g6
g7
Ntp2683
Rp2684
(dp2685
g11
(dp2686
g13
I3
sg14
g15
sg16
VSouthampton
p2687
ssbasg101
(lp2688
g5
(g6
g7
Ntp2689
Rp2690
(dp2691
g11
(dp2692
g13
I2
sg14
g31
sg16
VFulham
p2693
ssbasg108
(lp2694
g5
(g6
g7
Ntp2695
Rp2696
(dp2697
g11
(dp2698
g13
I5
sg14
g15
sg16
VLiverpool
p2699
ssbasg115
(lp2700
g5
(g6
g7
Ntp2701
Rp2702
(dp2703
g11
(dp2704
g13
I4
sg14
g31
sg16
VWigan
p2705
ssbasg122
(lp2706
g5
(g6
g7
Ntp2707
Rp2708
(dp2709
g11
(dp2710
g13
I7
sg14
g15
sg16
VNewcastle
p2711
ssbasg129
(lp2712
g5
(g6
g7
Ntp2713
Rp2714
(dp2715
g11
(dp2716
g13
I6
sg14
g31
sg16
VTottenham
p2717
ssbasg136
(lp2718
g5
(g6
g7
Ntp2719
Rp2720
(dp2721
g11
(dp2722
g13
I9
sg14
g15
sg16
VChelsea
p2723
ssbasg143
(lp2724
g5
(g6
g7
Ntp2725
Rp2726
(dp2727
g11
(dp2728
g13
I8
sg14
g31
sg16
VStoke City
p2729
ssbasS'38'
p2730
(lp2731
g5
(g6
g7
Ntp2732
Rp2733
(dp2734
g11
(dp2735
g13
I38
sg14
g15
sg16
VWest Brom
p2736
ssbasS'11'
p2737
(lp2738
g5
(g6
g7
Ntp2739
Rp2740
(dp2741
g11
(dp2742
g13
I11
sg14
g15
sg16
VAston Villa
p2743
ssbasS'10'
p2744
(lp2745
g5
(g6
g7
Ntp2746
Rp2747
(dp2748
g11
(dp2749
g13
I10
sg14
g31
sg16
VArsenal
p2750
ssbasS'13'
p2751
(lp2752
g5
(g6
g7
Ntp2753
Rp2754
(dp2755
g11
(dp2756
g13
I13
sg14
g31
sg16
VQPR
p2757
ssbasS'12'
p2758
(lp2759
g5
(g6
g7
Ntp2760
Rp2761
(dp2762
g11
(dp2763
g13
I12
sg14
g15
sg16
VNorwich
p2764
ssbasS'15'
p2765
(lp2766
g5
(g6
g7
Ntp2767
Rp2768
(dp2769
g11
(dp2770
g13
I15
sg14
g15
sg16
VReading
p2771
ssbasS'14'
p2772
(lp2773
g5
(g6
g7
Ntp2774
Rp2775
(dp2776
g11
(dp2777
g13
I14
sg14
g31
sg16
VWest Ham
p2778
ssbasS'17'
p2779
(lp2780
g5
(g6
g7
Ntp2781
Rp2782
(dp2783
g11
(dp2784
g13
I17
sg14
g31
sg16
VSunderland
p2785
ssbasS'16'
p2786
(lp2787
g5
(g6
g7
Ntp2788
Rp2789
(dp2790
g11
(dp2791
g13
I16
sg14
g15
sg16
VMan City
p2792
ssbasS'19'
p2793
(lp2794
g5
(g6
g7
Ntp2795
Rp2796
(dp2797
g11
(dp2798
g13
I19
sg14
g31
sg16
VNewcastle
p2799
ssbasS'18'
p2800
(lp2801
g5
(g6
g7
Ntp2802
Rp2803
(dp2804
g11
(dp2805
g13
I18
sg14
g15
sg16
VSwansea
p2806
ssbasS'31'
p2807
(lp2808
g5
(g6
g7
Ntp2809
Rp2810
(dp2811
g11
(dp2812
g13
I31
sg14
g15
sg16
VSunderland
p2813
ssbasS'30'
p2814
(lp2815
g5
(g6
g7
Ntp2816
Rp2817
(dp2818
g11
(dp2819
g13
I30
sg14
g31
sg16
VReading
p2820
ssbasS'37'
p2821
(lp2822
g5
(g6
g7
Ntp2823
Rp2824
(dp2825
g11
(dp2826
g13
I37
sg14
g31
sg16
VSwansea
p2827
ssbasS'36'
p2828
(lp2829
g5
(g6
g7
Ntp2830
Rp2831
(dp2832
g11
(dp2833
g13
I36
sg14
g31
sg16
VChelsea
p2834
ssbasS'35'
p2835
(lp2836
g5
(g6
g7
Ntp2837
Rp2838
(dp2839
g11
(dp2840
g13
I35
sg14
g15
sg16
VArsenal
p2841
ssbasS'34'
p2842
(lp2843
g5
(g6
g7
Ntp2844
Rp2845
(dp2846
g11
(dp2847
g13
I34
sg14
g31
sg16
VAston Villa
p2848
ssbasS'33'
p2849
(lp2850
g5
(g6
g7
Ntp2851
Rp2852
(dp2853
g11
(dp2854
g13
I33
sg14
g15
sg16
VStoke City
p2855
ssbag5
(g6
g7
Ntp2856
Rp2857
(dp2858
g11
(dp2859
g13
I33
sg14
g15
sg16
VWest Ham
p2860
ssbasS'32'
p2861
(lp2862
g5
(g6
g7
Ntp2863
Rp2864
(dp2865
g11
(dp2866
g13
I32
sg14
g31
sg16
VMan City
p2867
ssbassS'QPR'
p2868
(dp2869
S'24'
p2870
(lp2871
g5
(g6
g7
Ntp2872
Rp2873
(dp2874
g11
(dp2875
g13
I24
sg14
g31
sg16
VMan City
p2876
ssbasS'25'
p2877
(lp2878
g5
(g6
g7
Ntp2879
Rp2880
(dp2881
g11
(dp2882
g13
I25
sg14
g31
sg16
VNorwich
p2883
ssbasS'26'
p2884
(lp2885
g5
(g6
g7
Ntp2886
Rp2887
(dp2888
g11
(dp2889
g13
I26
sg14
g15
sg16
VSwansea
p2890
ssbasS'27'
p2891
(lp2892
g5
(g6
g7
Ntp2893
Rp2894
(dp2895
g11
(dp2896
g13
I27
sg14
g31
sg16
VMan Utd
p2897
ssbasS'20'
p2898
(lp2899
g5
(g6
g7
Ntp2900
Rp2901
(dp2902
g11
(dp2903
g13
I20
sg14
g31
sg16
VLiverpool
p2904
ssbasS'21'
p2905
(lp2906
g5
(g6
g7
Ntp2907
Rp2908
(dp2909
g11
(dp2910
g13
I21
sg14
g15
sg16
VChelsea
p2911
ssbasS'22'
p2912
(lp2913
g5
(g6
g7
Ntp2914
Rp2915
(dp2916
g11
(dp2917
g13
I22
sg14
g31
sg16
VTottenham
p2918
ssbasS'23'
p2919
(lp2920
g5
(g6
g7
Ntp2921
Rp2922
(dp2923
g11
(dp2924
g13
I23
sg14
g15
sg16
VWest Ham
p2925
ssbasS'28'
p2926
(lp2927
g5
(g6
g7
Ntp2928
Rp2929
(dp2930
g11
(dp2931
g13
I28
sg14
g15
sg16
VSouthampton
p2932
ssbasS'29'
p2933
(lp2934
g5
(g6
g7
Ntp2935
Rp2936
(dp2937
g11
(dp2938
g13
I29
sg14
g31
sg16
VSunderland
p2939
ssbasg87
(lp2940
g5
(g6
g7
Ntp2941
Rp2942
(dp2943
g11
(dp2944
g13
I1
sg14
g31
sg16
VSwansea
p2945
ssbasg94
(lp2946
g5
(g6
g7
Ntp2947
Rp2948
(dp2949
g11
(dp2950
g13
I3
sg14
g15
sg16
VMan City
p2951
ssbasg101
(lp2952
g5
(g6
g7
Ntp2953
Rp2954
(dp2955
g11
(dp2956
g13
I2
sg14
g15
sg16
VNorwich
p2957
ssbasg108
(lp2958
g5
(g6
g7
Ntp2959
Rp2960
(dp2961
g11
(dp2962
g13
I5
sg14
g15
sg16
VTottenham
p2963
ssbasg115
(lp2964
g5
(g6
g7
Ntp2965
Rp2966
(dp2967
g11
(dp2968
g13
I4
sg14
g31
sg16
VChelsea
p2969
ssbasg122
(lp2970
g5
(g6
g7
Ntp2971
Rp2972
(dp2973
g11
(dp2974
g13
I7
sg14
g15
sg16
VWest Brom
p2975
ssbasg129
(lp2976
g5
(g6
g7
Ntp2977
Rp2978
(dp2979
g11
(dp2980
g13
I6
sg14
g31
sg16
VWest Ham
p2981
ssbasg136
(lp2982
g5
(g6
g7
Ntp2983
Rp2984
(dp2985
g11
(dp2986
g13
I9
sg14
g15
sg16
VArsenal
p2987
ssbasg143
(lp2988
g5
(g6
g7
Ntp2989
Rp2990
(dp2991
g11
(dp2992
g13
I8
sg14
g31
sg16
VEverton
p2993
ssbasS'38'
p2994
(lp2995
g5
(g6
g7
Ntp2996
Rp2997
(dp2998
g11
(dp2999
g13
I38
sg14
g15
sg16
VLiverpool
p3000
ssbasS'11'
p3001
(lp3002
g5
(g6
g7
Ntp3003
Rp3004
(dp3005
g11
(dp3006
g13
I11
sg14
g15
sg16
VStoke City
p3007
ssbasS'10'
p3008
(lp3009
g5
(g6
g7
Ntp3010
Rp3011
(dp3012
g11
(dp3013
g13
I10
sg14
g31
sg16
VReading
p3014
ssbasS'13'
p3015
(lp3016
g5
(g6
g7
Ntp3017
Rp3018
(dp3019
g11
(dp3020
g13
I13
sg14
g15
sg16
VMan Utd
p3021
ssbasS'12'
p3022
(lp3023
g5
(g6
g7
Ntp3024
Rp3025
(dp3026
g11
(dp3027
g13
I12
sg14
g31
sg16
VSouthampton
p3028
ssbasS'15'
p3029
(lp3030
g5
(g6
g7
Ntp3031
Rp3032
(dp3033
g11
(dp3034
g13
I15
sg14
g31
sg16
VAston Villa
p3035
ssbasS'14'
p3036
(lp3037
g5
(g6
g7
Ntp3038
Rp3039
(dp3040
g11
(dp3041
g13
I14
sg14
g15
sg16
VSunderland
p3042
ssbasS'17'
p3043
(lp3044
g5
(g6
g7
Ntp3045
Rp3046
(dp3047
g11
(dp3048
g13
I17
sg14
g31
sg16
VFulham
p3049
ssbasS'16'
p3050
(lp3051
g5
(g6
g7
Ntp3052
Rp3053
(dp3054
g11
(dp3055
g13
I16
sg14
g15
sg16
VWigan
p3056
ssbasS'19'
p3057
(lp3058
g5
(g6
g7
Ntp3059
Rp3060
(dp3061
g11
(dp3062
g13
I19
sg14
g31
sg16
VWest Brom
p3063
ssbasS'18'
p3064
(lp3065
g5
(g6
g7
Ntp3066
Rp3067
(dp3068
g11
(dp3069
g13
I18
sg14
g15
sg16
VNewcastle
p3070
ssbasS'31'
p3071
(lp3072
g5
(g6
g7
Ntp3073
Rp3074
(dp3075
g11
(dp3076
g13
I31
sg14
g15
sg16
VFulham
p3077
ssbasS'30'
p3078
(lp3079
g5
(g6
g7
Ntp3080
Rp3081
(dp3082
g11
(dp3083
g13
I30
sg14
g15
sg16
VAston Villa
p3084
ssbasS'37'
p3085
(lp3086
g5
(g6
g7
Ntp3087
Rp3088
(dp3089
g11
(dp3090
g13
I37
sg14
g31
sg16
VNewcastle
p3091
ssbasS'36'
p3092
(lp3093
g5
(g6
g7
Ntp3094
Rp3095
(dp3096
g11
(dp3097
g13
I36
sg14
g31
sg16
VArsenal
p3098
ssbasS'35'
p3099
(lp3100
g5
(g6
g7
Ntp3101
Rp3102
(dp3103
g11
(dp3104
g13
I35
sg14
g15
sg16
VReading
p3105
ssbasS'34'
p3106
(lp3107
g5
(g6
g7
Ntp3108
Rp3109
(dp3110
g11
(dp3111
g13
I34
sg14
g31
sg16
VStoke City
p3112
ssbasS'33'
p3113
(lp3114
g5
(g6
g7
Ntp3115
Rp3116
(dp3117
g11
(dp3118
g13
I33
sg14
g15
sg16
VEverton
p3119
ssbasS'32'
p3120
(lp3121
g5
(g6
g7
Ntp3122
Rp3123
(dp3124
g11
(dp3125
g13
I32
sg14
g31
sg16
VWigan
p3126
ssbassS'Sunderland'
p3127
(dp3128
S'24'
p3129
(lp3130
g5
(g6
g7
Ntp3131
Rp3132
(dp3133
g11
(dp3134
g13
I24
sg14
g31
sg16
VSwansea
p3135
ssbasS'25'
p3136
(lp3137
g5
(g6
g7
Ntp3138
Rp3139
(dp3140
g11
(dp3141
g13
I25
sg14
g15
sg16
VReading
p3142
ssbasS'26'
p3143
(lp3144
g5
(g6
g7
Ntp3145
Rp3146
(dp3147
g11
(dp3148
g13
I26
sg14
g31
sg16
VArsenal
p3149
ssbasS'27'
p3150
(lp3151
g5
(g6
g7
Ntp3152
Rp3153
(dp3154
g11
(dp3155
g13
I27
sg14
g15
sg16
VWest Brom
p3156
ssbasS'20'
p3157
(lp3158
g5
(g6
g7
Ntp3159
Rp3160
(dp3161
g11
(dp3162
g13
I20
sg14
g31
sg16
VTottenham
p3163
ssbasS'21'
p3164
(lp3165
g5
(g6
g7
Ntp3166
Rp3167
(dp3168
g11
(dp3169
g13
I21
sg14
g15
sg16
VLiverpool
p3170
ssbasS'22'
p3171
(lp3172
g5
(g6
g7
Ntp3173
Rp3174
(dp3175
g11
(dp3176
g13
I22
sg14
g31
sg16
VWest Ham
p3177
ssbasS'23'
p3178
(lp3179
g5
(g6
g7
Ntp3180
Rp3181
(dp3182
g11
(dp3183
g13
I23
sg14
g15
sg16
VWigan
p3184
ssbasS'28'
p3185
(lp3186
g5
(g6
g7
Ntp3187
Rp3188
(dp3189
g11
(dp3190
g13
I28
sg14
g31
sg16
VFulham
p3191
ssbasS'29'
p3192
(lp3193
g5
(g6
g7
Ntp3194
Rp3195
(dp3196
g11
(dp3197
g13
I29
sg14
g15
sg16
VQPR
p3198
ssbasg87
(lp3199
g5
(g6
g7
Ntp3200
Rp3201
(dp3202
g11
(dp3203
g13
I1
sg14
g15
sg16
VArsenal
p3204
ssbasg94
(lp3205
g5
(g6
g7
Ntp3206
Rp3207
(dp3208
g11
(dp3209
g13
I3
sg14
g15
sg16
VSwansea
p3210
ssbasg101
(lp3211
sg108
(lp3212
g5
(g6
g7
Ntp3213
Rp3214
(dp3215
g11
(dp3216
g13
I5
sg14
g15
sg16
VWest Ham
p3217
ssbasg115
(lp3218
g5
(g6
g7
Ntp3219
Rp3220
(dp3221
g11
(dp3222
g13
I4
sg14
g31
sg16
VLiverpool
p3223
ssbasg122
(lp3224
g5
(g6
g7
Ntp3225
Rp3226
(dp3227
g11
(dp3228
g13
I7
sg14
g15
sg16
VMan City
p3229
ssbasg129
(lp3230
g5
(g6
g7
Ntp3231
Rp3232
(dp3233
g11
(dp3234
g13
I6
sg14
g31
sg16
VWigan
p3235
ssbasg136
(lp3236
g5
(g6
g7
Ntp3237
Rp3238
(dp3239
g11
(dp3240
g13
I9
sg14
g15
sg16
VStoke City
p3241
ssbasg143
(lp3242
g5
(g6
g7
Ntp3243
Rp3244
(dp3245
g11
(dp3246
g13
I8
sg14
g31
sg16
VNewcastle
p3247
ssbasS'38'
p3248
(lp3249
g5
(g6
g7
Ntp3250
Rp3251
(dp3252
g11
(dp3253
g13
I38
sg14
g15
sg16
VTottenham
p3254
ssbasS'11'
p3255
(lp3256
g5
(g6
g7
Ntp3257
Rp3258
(dp3259
g11
(dp3260
g13
I11
sg14
g15
sg16
VEverton
p3261
ssbasS'10'
p3262
(lp3263
g5
(g6
g7
Ntp3264
Rp3265
(dp3266
g11
(dp3267
g13
I10
sg14
g31
sg16
VAston Villa
p3268
ssbasS'13'
p3269
(lp3270
g5
(g6
g7
Ntp3271
Rp3272
(dp3273
g11
(dp3274
g13
I13
sg14
g31
sg16
VWest Brom
p3275
ssbasS'12'
p3276
(lp3277
g5
(g6
g7
Ntp3278
Rp3279
(dp3280
g11
(dp3281
g13
I12
sg14
g15
sg16
VFulham
p3282
ssbasS'15'
p3283
(lp3284
g5
(g6
g7
Ntp3285
Rp3286
(dp3287
g11
(dp3288
g13
I15
sg14
g15
sg16
VNorwich
p3289
ssbasS'14'
p3290
(lp3291
g5
(g6
g7
Ntp3292
Rp3293
(dp3294
g11
(dp3295
g13
I14
sg14
g31
sg16
VQPR
p3296
ssbasS'17'
p3297
(lp3298
g5
(g6
g7
Ntp3299
Rp3300
(dp3301
g11
(dp3302
g13
I17
sg14
g15
sg16
VMan Utd
p3303
ssbasS'16'
p3304
(lp3305
g5
(g6
g7
Ntp3306
Rp3307
(dp3308
g11
(dp3309
g13
I16
sg14
g31
sg16
VChelsea
p3310
ssbag5
(g6
g7
Ntp3311
Rp3312
(dp3313
g11
(dp3314
g13
I16
sg14
g31
sg16
VReading
p3315
ssbasS'19'
p3316
(lp3317
g5
(g6
g7
Ntp3318
Rp3319
(dp3320
g11
(dp3321
g13
I19
sg14
g31
sg16
VMan City
p3322
ssbasS'18'
p3323
(lp3324
g5
(g6
g7
Ntp3325
Rp3326
(dp3327
g11
(dp3328
g13
I18
sg14
g15
sg16
VSouthampton
p3329
ssbasS'31'
p3330
(lp3331
g5
(g6
g7
Ntp3332
Rp3333
(dp3334
g11
(dp3335
g13
I31
sg14
g31
sg16
VMan Utd
p3336
ssbasS'30'
p3337
(lp3338
g5
(g6
g7
Ntp3339
Rp3340
(dp3341
g11
(dp3342
g13
I30
sg14
g31
sg16
VNorwich
p3343
ssbasS'37'
p3344
(lp3345
g5
(g6
g7
Ntp3346
Rp3347
(dp3348
g11
(dp3349
g13
I37
sg14
g31
sg16
VSouthampton
p3350
ssbasS'36'
p3351
(lp3352
g5
(g6
g7
Ntp3353
Rp3354
(dp3355
g11
(dp3356
g13
I36
sg14
g31
sg16
VStoke City
p3357
ssbasS'35'
p3358
(lp3359
g5
(g6
g7
Ntp3360
Rp3361
(dp3362
g11
(dp3363
g13
I35
sg14
g15
sg16
VAston Villa
p3364
ssbasS'34'
p3365
(lp3366
g5
(g6
g7
Ntp3367
Rp3368
(dp3369
g11
(dp3370
g13
I34
sg14
g31
sg16
VEverton
p3371
ssbasS'33'
p3372
(lp3373
g5
(g6
g7
Ntp3374
Rp3375
(dp3376
g11
(dp3377
g13
I33
sg14
g15
sg16
VNewcastle
p3378
ssbasS'32'
p3379
(lp3380
g5
(g6
g7
Ntp3381
Rp3382
(dp3383
g11
(dp3384
g13
I32
sg14
g15
sg16
VChelsea
p3385
ssbassS'Wigan'
p3386
(dp3387
S'24'
p3388
(lp3389
g5
(g6
g7
Ntp3390
Rp3391
(dp3392
g11
(dp3393
g13
I24
sg14
g15
sg16
VStoke City
p3394
ssbasS'25'
p3395
(lp3396
g5
(g6
g7
Ntp3397
Rp3398
(dp3399
g11
(dp3400
g13
I25
sg14
g31
sg16
VSouthampton
p3401
ssbasS'26'
p3402
(lp3403
g5
(g6
g7
Ntp3404
Rp3405
(dp3406
g11
(dp3407
g13
I26
sg14
g15
sg16
VChelsea
p3408
ssbasS'27'
p3409
(lp3410
g5
(g6
g7
Ntp3411
Rp3412
(dp3413
g11
(dp3414
g13
I27
sg14
g15
sg16
VReading
p3415
ssbasS'20'
p3416
(lp3417
g5
(g6
g7
Ntp3418
Rp3419
(dp3420
g11
(dp3421
g13
I20
sg14
g15
sg16
VAston Villa
p3422
ssbasS'21'
p3423
(lp3424
g5
(g6
g7
Ntp3425
Rp3426
(dp3427
g11
(dp3428
g13
I21
sg14
g31
sg16
VMan Utd
p3429
ssbasS'22'
p3430
(lp3431
g5
(g6
g7
Ntp3432
Rp3433
(dp3434
g11
(dp3435
g13
I22
sg14
g15
sg16
VFulham
p3436
ssbasS'23'
p3437
(lp3438
g5
(g6
g7
Ntp3439
Rp3440
(dp3441
g11
(dp3442
g13
I23
sg14
g31
sg16
VSunderland
p3443
ssbasS'28'
p3444
(lp3445
g5
(g6
g7
Ntp3446
Rp3447
(dp3448
g11
(dp3449
g13
I28
sg14
g31
sg16
VLiverpool
p3450
ssbasS'29'
p3451
(lp3452
sg87
(lp3453
g5
(g6
g7
Ntp3454
Rp3455
(dp3456
g11
(dp3457
g13
I1
sg14
g31
sg16
VChelsea
p3458
ssbasg94
(lp3459
g5
(g6
g7
Ntp3460
Rp3461
(dp3462
g11
(dp3463
g13
I3
sg14
g31
sg16
VStoke City
p3464
ssbasg101
(lp3465
g5
(g6
g7
Ntp3466
Rp3467
(dp3468
g11
(dp3469
g13
I2
sg14
g15
sg16
VSouthampton
p3470
ssbasg108
(lp3471
g5
(g6
g7
Ntp3472
Rp3473
(dp3474
g11
(dp3475
g13
I5
sg14
g31
sg16
VFulham
p3476
ssbasg115
(lp3477
g5
(g6
g7
Ntp3478
Rp3479
(dp3480
g11
(dp3481
g13
I4
sg14
g15
sg16
VMan Utd
p3482
ssbasg122
(lp3483
g5
(g6
g7
Ntp3484
Rp3485
(dp3486
g11
(dp3487
g13
I7
sg14
g31
sg16
VEverton
p3488
ssbasg129
(lp3489
g5
(g6
g7
Ntp3490
Rp3491
(dp3492
g11
(dp3493
g13
I6
sg14
g15
sg16
VSunderland
p3494
ssbasg136
(lp3495
g5
(g6
g7
Ntp3496
Rp3497
(dp3498
g11
(dp3499
g13
I9
sg14
g31
sg16
VWest Ham
p3500
ssbasg143
(lp3501
g5
(g6
g7
Ntp3502
Rp3503
(dp3504
g11
(dp3505
g13
I8
sg14
g15
sg16
VSwansea
p3506
ssbasS'38'
p3507
(lp3508
g5
(g6
g7
Ntp3509
Rp3510
(dp3511
g11
(dp3512
g13
I38
sg14
g31
sg16
VAston Villa
p3513
ssbasS'11'
p3514
(lp3515
g5
(g6
g7
Ntp3516
Rp3517
(dp3518
g11
(dp3519
g13
I11
sg14
g31
sg16
VWest Brom
p3520
ssbasS'10'
p3521
(lp3522
g5
(g6
g7
Ntp3523
Rp3524
(dp3525
g11
(dp3526
g13
I10
sg14
g15
sg16
VTottenham
p3527
ssbasS'13'
p3528
(lp3529
g5
(g6
g7
Ntp3530
Rp3531
(dp3532
g11
(dp3533
g13
I13
sg14
g31
sg16
VReading
p3534
ssbasS'12'
p3535
(lp3536
g5
(g6
g7
Ntp3537
Rp3538
(dp3539
g11
(dp3540
g13
I12
sg14
g15
sg16
VLiverpool
p3541
ssbasS'15'
p3542
(lp3543
g5
(g6
g7
Ntp3544
Rp3545
(dp3546
g11
(dp3547
g13
I15
sg14
g15
sg16
VNewcastle
p3548
ssbasS'14'
p3549
(lp3550
g5
(g6
g7
Ntp3551
Rp3552
(dp3553
g11
(dp3554
g13
I14
sg14
g31
sg16
VMan City
p3555
ssbasS'17'
p3556
(lp3557
g5
(g6
g7
Ntp3558
Rp3559
(dp3560
g11
(dp3561
g13
I17
sg14
g15
sg16
VNorwich
p3562
ssbasS'16'
p3563
(lp3564
g5
(g6
g7
Ntp3565
Rp3566
(dp3567
g11
(dp3568
g13
I16
sg14
g31
sg16
VQPR
p3569
ssbasS'19'
p3570
(lp3571
g5
(g6
g7
Ntp3572
Rp3573
(dp3574
g11
(dp3575
g13
I19
sg14
g15
sg16
VEverton
p3576
ssbasS'18'
p3577
(lp3578
g5
(g6
g7
Ntp3579
Rp3580
(dp3581
g11
(dp3582
g13
I18
sg14
g31
sg16
VArsenal
p3583
ssbasS'31'
p3584
(lp3585
g5
(g6
g7
Ntp3586
Rp3587
(dp3588
g11
(dp3589
g13
I31
sg14
g31
sg16
VNorwich
p3590
ssbasS'30'
p3591
(lp3592
g5
(g6
g7
Ntp3593
Rp3594
(dp3595
g11
(dp3596
g13
I30
sg14
g31
sg16
VNewcastle
p3597
ssbasS'37'
p3598
(lp3599
g5
(g6
g7
Ntp3600
Rp3601
(dp3602
g11
(dp3603
g13
I37
sg14
g15
sg16
VArsenal
p3604
ssbasS'36'
p3605
(lp3606
g5
(g6
g7
Ntp3607
Rp3608
(dp3609
g11
(dp3610
g13
I36
sg14
g15
sg16
VWest Brom
p3611
ssbag5
(g6
g7
Ntp3612
Rp3613
(dp3614
g11
(dp3615
g13
I36
sg14
g31
sg16
VSwansea
p3616
ssbasS'35'
p3617
(lp3618
g5
(g6
g7
Ntp3619
Rp3620
(dp3621
g11
(dp3622
g13
I35
sg14
g31
sg16
VTottenham
p3623
ssbasS'34'
p3624
(lp3625
g5
(g6
g7
Ntp3626
Rp3627
(dp3628
g11
(dp3629
g13
I34
sg14
g15
sg16
VWest Ham
p3630
ssbasS'33'
p3631
(lp3632
g5
(g6
g7
Ntp3633
Rp3634
(dp3635
g11
(dp3636
g13
I33
sg14
g15
sg16
VMan City
p3637
ssbasS'32'
p3638
(lp3639
g5
(g6
g7
Ntp3640
Rp3641
(dp3642
g11
(dp3643
g13
I32
sg14
g15
sg16
VQPR
p3644
ssbassS'Newcastle'
p3645
(dp3646
S'24'
p3647
(lp3648
g5
(g6
g7
Ntp3649
Rp3650
(dp3651
g11
(dp3652
g13
I24
sg14
g15
sg16
VAston Villa
p3653
ssbasS'25'
p3654
(lp3655
g5
(g6
g7
Ntp3656
Rp3657
(dp3658
g11
(dp3659
g13
I25
sg14
g31
sg16
VChelsea
p3660
ssbasS'26'
p3661
(lp3662
g5
(g6
g7
Ntp3663
Rp3664
(dp3665
g11
(dp3666
g13
I26
sg14
g15
sg16
VTottenham
p3667
ssbasS'27'
p3668
(lp3669
g5
(g6
g7
Ntp3670
Rp3671
(dp3672
g11
(dp3673
g13
I27
sg14
g31
sg16
VSouthampton
p3674
ssbasS'20'
p3675
(lp3676
g5
(g6
g7
Ntp3677
Rp3678
(dp3679
g11
(dp3680
g13
I20
sg14
g15
sg16
VArsenal
p3681
ssbasS'21'
p3682
(lp3683
g5
(g6
g7
Ntp3684
Rp3685
(dp3686
g11
(dp3687
g13
I21
sg14
g31
sg16
VEverton
p3688
ssbasS'22'
p3689
(lp3690
g5
(g6
g7
Ntp3691
Rp3692
(dp3693
g11
(dp3694
g13
I22
sg14
g15
sg16
VNorwich
p3695
ssbasS'23'
p3696
(lp3697
g5
(g6
g7
Ntp3698
Rp3699
(dp3700
g11
(dp3701
g13
I23
sg14
g31
sg16
VReading
p3702
ssbasS'28'
p3703
(lp3704
g5
(g6
g7
Ntp3705
Rp3706
(dp3707
g11
(dp3708
g13
I28
sg14
g15
sg16
VSwansea
p3709
ssbasS'29'
p3710
(lp3711
g5
(g6
g7
Ntp3712
Rp3713
(dp3714
g11
(dp3715
g13
I29
sg14
g31
sg16
VStoke City
p3716
ssbasg87
(lp3717
g5
(g6
g7
Ntp3718
Rp3719
(dp3720
g11
(dp3721
g13
I1
sg14
g31
sg16
VTottenham
p3722
ssbasg94
(lp3723
g5
(g6
g7
Ntp3724
Rp3725
(dp3726
g11
(dp3727
g13
I3
sg14
g31
sg16
VAston Villa
p3728
ssbasg101
(lp3729
g5
(g6
g7
Ntp3730
Rp3731
(dp3732
g11
(dp3733
g13
I2
sg14
g15
sg16
VChelsea
p3734
ssbasg108
(lp3735
g5
(g6
g7
Ntp3736
Rp3737
(dp3738
g11
(dp3739
g13
I5
sg14
g31
sg16
VNorwich
p3740
ssbasg115
(lp3741
g5
(g6
g7
Ntp3742
Rp3743
(dp3744
g11
(dp3745
g13
I4
sg14
g15
sg16
VEverton
p3746
ssbasg122
(lp3747
g5
(g6
g7
Ntp3748
Rp3749
(dp3750
g11
(dp3751
g13
I7
sg14
g31
sg16
VMan Utd
p3752
ssbasg129
(lp3753
g5
(g6
g7
Ntp3754
Rp3755
(dp3756
g11
(dp3757
g13
I6
sg14
g15
sg16
VReading
p3758
ssbasg136
(lp3759
g5
(g6
g7
Ntp3760
Rp3761
(dp3762
g11
(dp3763
g13
I9
sg14
g31
sg16
VWest Brom
p3764
ssbasg143
(lp3765
g5
(g6
g7
Ntp3766
Rp3767
(dp3768
g11
(dp3769
g13
I8
sg14
g15
sg16
VSunderland
p3770
ssbasS'38'
p3771
(lp3772
g5
(g6
g7
Ntp3773
Rp3774
(dp3775
g11
(dp3776
g13
I38
sg14
g31
sg16
VArsenal
p3777
ssbasS'11'
p3778
(lp3779
g5
(g6
g7
Ntp3780
Rp3781
(dp3782
g11
(dp3783
g13
I11
sg14
g31
sg16
VWest Ham
p3784
ssbasS'10'
p3785
(lp3786
g5
(g6
g7
Ntp3787
Rp3788
(dp3789
g11
(dp3790
g13
I10
sg14
g15
sg16
VLiverpool
p3791
ssbasS'13'
p3792
(lp3793
g5
(g6
g7
Ntp3794
Rp3795
(dp3796
g11
(dp3797
g13
I13
sg14
g15
sg16
VSouthampton
p3798
ssbasS'12'
p3799
(lp3800
g5
(g6
g7
Ntp3801
Rp3802
(dp3803
g11
(dp3804
g13
I12
sg14
g31
sg16
VSwansea
p3805
ssbasS'15'
p3806
(lp3807
g5
(g6
g7
Ntp3808
Rp3809
(dp3810
g11
(dp3811
g13
I15
sg14
g31
sg16
VWigan
p3812
ssbasS'14'
p3813
(lp3814
g5
(g6
g7
Ntp3815
Rp3816
(dp3817
g11
(dp3818
g13
I14
sg14
g15
sg16
VStoke City
p3819
ssbasS'17'
p3820
(lp3821
g5
(g6
g7
Ntp3822
Rp3823
(dp3824
g11
(dp3825
g13
I17
sg14
g31
sg16
VMan City
p3826
ssbasS'16'
p3827
(lp3828
g5
(g6
g7
Ntp3829
Rp3830
(dp3831
g11
(dp3832
g13
I16
sg14
g15
sg16
VFulham
p3833
ssbasS'19'
p3834
(lp3835
g5
(g6
g7
Ntp3836
Rp3837
(dp3838
g11
(dp3839
g13
I19
sg14
g15
sg16
VMan Utd
p3840
ssbasS'18'
p3841
(lp3842
g5
(g6
g7
Ntp3843
Rp3844
(dp3845
g11
(dp3846
g13
I18
sg14
g31
sg16
VQPR
p3847
ssbasS'31'
p3848
(lp3849
g5
(g6
g7
Ntp3850
Rp3851
(dp3852
g11
(dp3853
g13
I31
sg14
g15
sg16
VMan City
p3854
ssbasS'30'
p3855
(lp3856
g5
(g6
g7
Ntp3857
Rp3858
(dp3859
g11
(dp3860
g13
I30
sg14
g15
sg16
VWigan
p3861
ssbasS'37'
p3862
(lp3863
g5
(g6
g7
Ntp3864
Rp3865
(dp3866
g11
(dp3867
g13
I37
sg14
g15
sg16
VQPR
p3868
ssbasS'36'
p3869
(lp3870
g5
(g6
g7
Ntp3871
Rp3872
(dp3873
g11
(dp3874
g13
I36
sg14
g15
sg16
VWest Ham
p3875
ssbasS'35'
p3876
(lp3877
g5
(g6
g7
Ntp3878
Rp3879
(dp3880
g11
(dp3881
g13
I35
sg14
g31
sg16
VLiverpool
p3882
ssbasS'34'
p3883
(lp3884
g5
(g6
g7
Ntp3885
Rp3886
(dp3887
g11
(dp3888
g13
I34
sg14
g15
sg16
VWest Brom
p3889
ssbasS'33'
p3890
(lp3891
g5
(g6
g7
Ntp3892
Rp3893
(dp3894
g11
(dp3895
g13
I33
sg14
g31
sg16
VSunderland
p3896
ssbasS'32'
p3897
(lp3898
g5
(g6
g7
Ntp3899
Rp3900
(dp3901
g11
(dp3902
g13
I32
sg14
g31
sg16
VFulham
p3903
ssbassS'Everton'
p3904
(dp3905
S'24'
p3906
(lp3907
g5
(g6
g7
Ntp3908
Rp3909
(dp3910
g11
(dp3911
g13
I24
sg14
g31
sg16
VWest Brom
p3912
ssbasS'25'
p3913
(lp3914
g5
(g6
g7
Ntp3915
Rp3916
(dp3917
g11
(dp3918
g13
I25
sg14
g31
sg16
VAston Villa
p3919
ssbasS'26'
p3920
(lp3921
g5
(g6
g7
Ntp3922
Rp3923
(dp3924
g11
(dp3925
g13
I26
sg14
g15
sg16
VMan Utd
p3926
ssbasS'27'
p3927
(lp3928
g5
(g6
g7
Ntp3929
Rp3930
(dp3931
g11
(dp3932
g13
I27
sg14
g15
sg16
VNorwich
p3933
ssbasS'20'
p3934
(lp3935
g5
(g6
g7
Ntp3936
Rp3937
(dp3938
g11
(dp3939
g13
I20
sg14
g31
sg16
VChelsea
p3940
ssbasS'21'
p3941
(lp3942
g5
(g6
g7
Ntp3943
Rp3944
(dp3945
g11
(dp3946
g13
I21
sg14
g15
sg16
VNewcastle
p3947
ssbasS'22'
p3948
(lp3949
g5
(g6
g7
Ntp3950
Rp3951
(dp3952
g11
(dp3953
g13
I22
sg14
g31
sg16
VSwansea
p3954
ssbasS'23'
p3955
(lp3956
g5
(g6
g7
Ntp3957
Rp3958
(dp3959
g11
(dp3960
g13
I23
sg14
g15
sg16
VSouthampton
p3961
ssbasS'28'
p3962
(lp3963
g5
(g6
g7
Ntp3964
Rp3965
(dp3966
g11
(dp3967
g13
I28
sg14
g31
sg16
VReading
p3968
ssbasS'29'
p3969
(lp3970
sg87
(lp3971
g5
(g6
g7
Ntp3972
Rp3973
(dp3974
g11
(dp3975
g13
I1
sg14
g31
sg16
VMan Utd
p3976
ssbasg94
(lp3977
g5
(g6
g7
Ntp3978
Rp3979
(dp3980
g11
(dp3981
g13
I3
sg14
g15
sg16
VWest Brom
p3982
ssbasg101
(lp3983
g5
(g6
g7
Ntp3984
Rp3985
(dp3986
g11
(dp3987
g13
I2
sg14
g15
sg16
VAston Villa
p3988
ssbasg108
(lp3989
g5
(g6
g7
Ntp3990
Rp3991
(dp3992
g11
(dp3993
g13
I5
sg14
g15
sg16
VSwansea
p3994
ssbasg115
(lp3995
g5
(g6
g7
Ntp3996
Rp3997
(dp3998
g11
(dp3999
g13
I4
sg14
g31
sg16
VNewcastle
p4000
ssbasg122
(lp4001
g5
(g6
g7
Ntp4002
Rp4003
(dp4004
g11
(dp4005
g13
I7
sg14
g15
sg16
VWigan
p4006
ssbasg129
(lp4007
g5
(g6
g7
Ntp4008
Rp4009
(dp4010
g11
(dp4011
g13
I6
sg14
g31
sg16
VSouthampton
p4012
ssbasg136
(lp4013
g5
(g6
g7
Ntp4014
Rp4015
(dp4016
g11
(dp4017
g13
I9
sg14
g31
sg16
VLiverpool
p4018
ssbasg143
(lp4019
g5
(g6
g7
Ntp4020
Rp4021
(dp4022
g11
(dp4023
g13
I8
sg14
g15
sg16
VQPR
p4024
ssbasS'38'
p4025
(lp4026
g5
(g6
g7
Ntp4027
Rp4028
(dp4029
g11
(dp4030
g13
I38
sg14
g15
sg16
VChelsea
p4031
ssbasS'11'
p4032
(lp4033
g5
(g6
g7
Ntp4034
Rp4035
(dp4036
g11
(dp4037
g13
I11
sg14
g31
sg16
VSunderland
p4038
ssbasS'10'
p4039
(lp4040
g5
(g6
g7
Ntp4041
Rp4042
(dp4043
g11
(dp4044
g13
I10
sg14
g15
sg16
VFulham
p4045
ssbasS'13'
p4046
(lp4047
g5
(g6
g7
Ntp4048
Rp4049
(dp4050
g11
(dp4051
g13
I13
sg14
g31
sg16
VNorwich
p4052
ssbasS'12'
p4053
(lp4054
g5
(g6
g7
Ntp4055
Rp4056
(dp4057
g11
(dp4058
g13
I12
sg14
g15
sg16
VReading
p4059
ssbasS'15'
p4060
(lp4061
g5
(g6
g7
Ntp4062
Rp4063
(dp4064
g11
(dp4065
g13
I15
sg14
g15
sg16
VMan City
p4066
ssbasS'14'
p4067
(lp4068
g5
(g6
g7
Ntp4069
Rp4070
(dp4071
g11
(dp4072
g13
I14
sg14
g31
sg16
VArsenal
p4073
ssbasS'17'
p4074
(lp4075
g5
(g6
g7
Ntp4076
Rp4077
(dp4078
g11
(dp4079
g13
I17
sg14
g15
sg16
VStoke City
p4080
ssbasS'16'
p4081
(lp4082
g5
(g6
g7
Ntp4083
Rp4084
(dp4085
g11
(dp4086
g13
I16
sg14
g31
sg16
VTottenham
p4087
ssbasS'19'
p4088
(lp4089
g5
(g6
g7
Ntp4090
Rp4091
(dp4092
g11
(dp4093
g13
I19
sg14
g31
sg16
VWigan
p4094
ssbasS'18'
p4095
(lp4096
g5
(g6
g7
Ntp4097
Rp4098
(dp4099
g11
(dp4100
g13
I18
sg14
g15
sg16
VWest Ham
p4101
ssbasS'31'
p4102
(lp4103
g5
(g6
g7
Ntp4104
Rp4105
(dp4106
g11
(dp4107
g13
I31
sg14
g31
sg16
VStoke City
p4108
ssbasS'30'
p4109
(lp4110
g5
(g6
g7
Ntp4111
Rp4112
(dp4113
g11
(dp4114
g13
I30
sg14
g31
sg16
VMan City
p4115
ssbasS'37'
p4116
(lp4117
g5
(g6
g7
Ntp4118
Rp4119
(dp4120
g11
(dp4121
g13
I37
sg14
g31
sg16
VWest Ham
p4122
ssbasS'36'
p4123
(lp4124
g5
(g6
g7
Ntp4125
Rp4126
(dp4127
g11
(dp4128
g13
I36
sg14
g15
sg16
VLiverpool
p4129
ssbasS'35'
p4130
(lp4131
g5
(g6
g7
Ntp4132
Rp4133
(dp4134
g11
(dp4135
g13
I35
sg14
g31
sg16
VFulham
p4136
ssbasS'34'
p4137
(lp4138
g5
(g6
g7
Ntp4139
Rp4140
(dp4141
g11
(dp4142
g13
I34
sg14
g15
sg16
VSunderland
p4143
ssbasS'33'
p4144
(lp4145
g5
(g6
g7
Ntp4146
Rp4147
(dp4148
g11
(dp4149
g13
I33
sg14
g31
sg16
VQPR
p4150
ssbag5
(g6
g7
Ntp4151
Rp4152
(dp4153
g11
(dp4154
g13
I33
sg14
g15
sg16
VArsenal
p4155
ssbasS'32'
p4156
(lp4157
g5
(g6
g7
Ntp4158
Rp4159
(dp4160
g11
(dp4161
g13
I32
sg14
g15
sg16
VTottenham
p4162
ssbassS'West Brom'
p4163
(dp4164
S'24'
p4165
(lp4166
g5
(g6
g7
Ntp4167
Rp4168
(dp4169
g11
(dp4170
g13
I24
sg14
g15
sg16
VEverton
p4171
ssbasS'25'
p4172
(lp4173
g5
(g6
g7
Ntp4174
Rp4175
(dp4176
g11
(dp4177
g13
I25
sg14
g31
sg16
VTottenham
p4178
ssbasS'26'
p4179
(lp4180
g5
(g6
g7
Ntp4181
Rp4182
(dp4183
g11
(dp4184
g13
I26
sg14
g15
sg16
VLiverpool
p4185
ssbasS'27'
p4186
(lp4187
g5
(g6
g7
Ntp4188
Rp4189
(dp4190
g11
(dp4191
g13
I27
sg14
g31
sg16
VSunderland
p4192
ssbasS'20'
p4193
(lp4194
g5
(g6
g7
Ntp4195
Rp4196
(dp4197
g11
(dp4198
g13
I20
sg14
g15
sg16
VMan Utd
p4199
ssbasS'21'
p4200
(lp4201
g5
(g6
g7
Ntp4202
Rp4203
(dp4204
g11
(dp4205
g13
I21
sg14
g31
sg16
VFulham
p4206
ssbasS'22'
p4207
(lp4208
g5
(g6
g7
Ntp4209
Rp4210
(dp4211
g11
(dp4212
g13
I22
sg14
g15
sg16
VReading
p4213
ssbasS'23'
p4214
(lp4215
g5
(g6
g7
Ntp4216
Rp4217
(dp4218
g11
(dp4219
g13
I23
sg14
g31
sg16
VAston Villa
p4220
ssbasS'28'
p4221
(lp4222
g5
(g6
g7
Ntp4223
Rp4224
(dp4225
g11
(dp4226
g13
I28
sg14
g15
sg16
VChelsea
p4227
ssbasS'29'
p4228
(lp4229
g5
(g6
g7
Ntp4230
Rp4231
(dp4232
g11
(dp4233
g13
I29
sg14
g31
sg16
VSwansea
p4234
ssbasg87
(lp4235
g5
(g6
g7
Ntp4236
Rp4237
(dp4238
g11
(dp4239
g13
I1
sg14
g31
sg16
VLiverpool
p4240
ssbasg94
(lp4241
g5
(g6
g7
Ntp4242
Rp4243
(dp4244
g11
(dp4245
g13
I3
sg14
g31
sg16
VEverton
p4246
ssbasg101
(lp4247
g5
(g6
g7
Ntp4248
Rp4249
(dp4250
g11
(dp4251
g13
I2
sg14
g15
sg16
VTottenham
p4252
ssbasg108
(lp4253
g5
(g6
g7
Ntp4254
Rp4255
(dp4256
g11
(dp4257
g13
I5
sg14
g31
sg16
VReading
p4258
ssbasg115
(lp4259
g5
(g6
g7
Ntp4260
Rp4261
(dp4262
g11
(dp4263
g13
I4
sg14
g15
sg16
VFulham
p4264
ssbasg122
(lp4265
g5
(g6
g7
Ntp4266
Rp4267
(dp4268
g11
(dp4269
g13
I7
sg14
g31
sg16
VQPR
p4270
ssbasg129
(lp4271
g5
(g6
g7
Ntp4272
Rp4273
(dp4274
g11
(dp4275
g13
I6
sg14
g15
sg16
VAston Villa
p4276
ssbasg136
(lp4277
g5
(g6
g7
Ntp4278
Rp4279
(dp4280
g11
(dp4281
g13
I9
sg14
g15
sg16
VNewcastle
p4282
ssbasg143
(lp4283
g5
(g6
g7
Ntp4284
Rp4285
(dp4286
g11
(dp4287
g13
I8
sg14
g31
sg16
VMan City
p4288
ssbasS'38'
p4289
(lp4290
g5
(g6
g7
Ntp4291
Rp4292
(dp4293
g11
(dp4294
g13
I38
sg14
g31
sg16
VMan Utd
p4295
ssbasS'11'
p4296
(lp4297
g5
(g6
g7
Ntp4298
Rp4299
(dp4300
g11
(dp4301
g13
I11
sg14
g15
sg16
VWigan
p4302
ssbasS'10'
p4303
(lp4304
g5
(g6
g7
Ntp4305
Rp4306
(dp4307
g11
(dp4308
g13
I10
sg14
g31
sg16
VSouthampton
p4309
ssbasS'13'
p4310
(lp4311
g5
(g6
g7
Ntp4312
Rp4313
(dp4314
g11
(dp4315
g13
I13
sg14
g15
sg16
VSunderland
p4316
ssbasS'12'
p4317
(lp4318
g5
(g6
g7
Ntp4319
Rp4320
(dp4321
g11
(dp4322
g13
I12
sg14
g31
sg16
VChelsea
p4323
ssbasS'15'
p4324
(lp4325
g5
(g6
g7
Ntp4326
Rp4327
(dp4328
g11
(dp4329
g13
I15
sg14
g31
sg16
VStoke City
p4330
ssbasS'14'
p4331
(lp4332
g5
(g6
g7
Ntp4333
Rp4334
(dp4335
g11
(dp4336
g13
I14
sg14
g15
sg16
VSwansea
p4337
ssbasS'17'
p4338
(lp4339
g5
(g6
g7
Ntp4340
Rp4341
(dp4342
g11
(dp4343
g13
I17
sg14
g31
sg16
VWest Ham
p4344
ssbasS'16'
p4345
(lp4346
g5
(g6
g7
Ntp4347
Rp4348
(dp4349
g11
(dp4350
g13
I16
sg14
g15
sg16
VArsenal
p4351
ssbasS'19'
p4352
(lp4353
g5
(g6
g7
Ntp4354
Rp4355
(dp4356
g11
(dp4357
g13
I19
sg14
g15
sg16
VQPR
p4358
ssbasS'18'
p4359
(lp4360
g5
(g6
g7
Ntp4361
Rp4362
(dp4363
g11
(dp4364
g13
I18
sg14
g31
sg16
VNorwich
p4365
ssbasS'31'
p4366
(lp4367
g5
(g6
g7
Ntp4368
Rp4369
(dp4370
g11
(dp4371
g13
I31
sg14
g15
sg16
VWest Ham
p4372
ssbasS'30'
p4373
(lp4374
g5
(g6
g7
Ntp4375
Rp4376
(dp4377
g11
(dp4378
g13
I30
sg14
g15
sg16
VStoke City
p4379
ssbasS'37'
p4380
(lp4381
g5
(g6
g7
Ntp4382
Rp4383
(dp4384
g11
(dp4385
g13
I37
sg14
g15
sg16
VNorwich
p4386
ssbasS'36'
p4387
(lp4388
g5
(g6
g7
Ntp4389
Rp4390
(dp4391
g11
(dp4392
g13
I36
sg14
g31
sg16
VWigan
p4393
ssbag5
(g6
g7
Ntp4394
Rp4395
(dp4396
g11
(dp4397
g13
I36
sg14
g15
sg16
VMan City
p4398
ssbasS'35'
p4399
(lp4400
g5
(g6
g7
Ntp4401
Rp4402
(dp4403
g11
(dp4404
g13
I35
sg14
g15
sg16
VSouthampton
p4405
ssbasS'34'
p4406
(lp4407
g5
(g6
g7
Ntp4408
Rp4409
(dp4410
g11
(dp4411
g13
I34
sg14
g31
sg16
VNewcastle
p4412
ssbasS'33'
p4413
(lp4414
sS'32'
p4415
(lp4416
g5
(g6
g7
Ntp4417
Rp4418
(dp4419
g11
(dp4420
g13
I32
sg14
g31
sg16
VArsenal
p4421
ssbassS'Swansea'
p4422
(dp4423
S'24'
p4424
(lp4425
g5
(g6
g7
Ntp4426
Rp4427
(dp4428
g11
(dp4429
g13
I24
sg14
g15
sg16
VSunderland
p4430
ssbasS'25'
p4431
(lp4432
g5
(g6
g7
Ntp4433
Rp4434
(dp4435
g11
(dp4436
g13
I25
sg14
g15
sg16
VWest Ham
p4437
ssbasS'26'
p4438
(lp4439
g5
(g6
g7
Ntp4440
Rp4441
(dp4442
g11
(dp4443
g13
I26
sg14
g31
sg16
VQPR
p4444
ssbag5
(g6
g7
Ntp4445
Rp4446
(dp4447
g11
(dp4448
g13
I26
sg14
g15
sg16
VLiverpool
p4449
ssbasS'27'
p4450
(lp4451
sS'20'
p4452
(lp4453
g5
(g6
g7
Ntp4454
Rp4455
(dp4456
g11
(dp4457
g13
I20
sg14
g15
sg16
VFulham
p4458
ssbasS'21'
p4459
(lp4460
g5
(g6
g7
Ntp4461
Rp4462
(dp4463
g11
(dp4464
g13
I21
sg14
g31
sg16
VAston Villa
p4465
ssbasS'22'
p4466
(lp4467
g5
(g6
g7
Ntp4468
Rp4469
(dp4470
g11
(dp4471
g13
I22
sg14
g15
sg16
VEverton
p4472
ssbasS'23'
p4473
(lp4474
g5
(g6
g7
Ntp4475
Rp4476
(dp4477
g11
(dp4478
g13
I23
sg14
g31
sg16
VStoke City
p4479
ssbasS'28'
p4480
(lp4481
g5
(g6
g7
Ntp4482
Rp4483
(dp4484
g11
(dp4485
g13
I28
sg14
g31
sg16
VNewcastle
p4486
ssbasS'29'
p4487
(lp4488
g5
(g6
g7
Ntp4489
Rp4490
(dp4491
g11
(dp4492
g13
I29
sg14
g15
sg16
VWest Brom
p4493
ssbasg87
(lp4494
g5
(g6
g7
Ntp4495
Rp4496
(dp4497
g11
(dp4498
g13
I1
sg14
g15
sg16
VQPR
p4499
ssbasg94
(lp4500
g5
(g6
g7
Ntp4501
Rp4502
(dp4503
g11
(dp4504
g13
I3
sg14
g31
sg16
VSunderland
p4505
ssbasg101
(lp4506
g5
(g6
g7
Ntp4507
Rp4508
(dp4509
g11
(dp4510
g13
I2
sg14
g31
sg16
VWest Ham
p4511
ssbasg108
(lp4512
g5
(g6
g7
Ntp4513
Rp4514
(dp4515
g11
(dp4516
g13
I5
sg14
g31
sg16
VEverton
p4517
ssbasg115
(lp4518
g5
(g6
g7
Ntp4519
Rp4520
(dp4521
g11
(dp4522
g13
I4
sg14
g15
sg16
VAston Villa
p4523
ssbasg122
(lp4524
g5
(g6
g7
Ntp4525
Rp4526
(dp4527
g11
(dp4528
g13
I7
sg14
g31
sg16
VReading
p4529
ssbasg129
(lp4530
g5
(g6
g7
Ntp4531
Rp4532
(dp4533
g11
(dp4534
g13
I6
sg14
g15
sg16
VStoke City
p4535
ssbasg136
(lp4536
g5
(g6
g7
Ntp4537
Rp4538
(dp4539
g11
(dp4540
g13
I9
sg14
g15
sg16
VMan City
p4541
ssbasg143
(lp4542
g5
(g6
g7
Ntp4543
Rp4544
(dp4545
g11
(dp4546
g13
I8
sg14
g31
sg16
VWigan
p4547
ssbasS'38'
p4548
(lp4549
g5
(g6
g7
Ntp4550
Rp4551
(dp4552
g11
(dp4553
g13
I38
sg14
g31
sg16
VFulham
p4554
ssbasS'11'
p4555
(lp4556
g5
(g6
g7
Ntp4557
Rp4558
(dp4559
g11
(dp4560
g13
I11
sg14
g15
sg16
VSouthampton
p4561
ssbasS'10'
p4562
(lp4563
g5
(g6
g7
Ntp4564
Rp4565
(dp4566
g11
(dp4567
g13
I10
sg14
g31
sg16
VChelsea
p4568
ssbasS'13'
p4569
(lp4570
g5
(g6
g7
Ntp4571
Rp4572
(dp4573
g11
(dp4574
g13
I13
sg14
g31
sg16
VLiverpool
p4575
ssbasS'12'
p4576
(lp4577
g5
(g6
g7
Ntp4578
Rp4579
(dp4580
g11
(dp4581
g13
I12
sg14
g15
sg16
VNewcastle
p4582
ssbasS'15'
p4583
(lp4584
g5
(g6
g7
Ntp4585
Rp4586
(dp4587
g11
(dp4588
g13
I15
sg14
g15
sg16
VArsenal
p4589
ssbasS'14'
p4590
(lp4591
g5
(g6
g7
Ntp4592
Rp4593
(dp4594
g11
(dp4595
g13
I14
sg14
g31
sg16
VWest Brom
p4596
ssbasS'17'
p4597
(lp4598
g5
(g6
g7
Ntp4599
Rp4600
(dp4601
g11
(dp4602
g13
I17
sg14
g15
sg16
VTottenham
p4603
ssbasS'16'
p4604
(lp4605
g5
(g6
g7
Ntp4606
Rp4607
(dp4608
g11
(dp4609
g13
I16
sg14
g31
sg16
VNorwich
p4610
ssbasS'19'
p4611
(lp4612
g5
(g6
g7
Ntp4613
Rp4614
(dp4615
g11
(dp4616
g13
I19
sg14
g15
sg16
VReading
p4617
ssbasS'18'
p4618
(lp4619
g5
(g6
g7
Ntp4620
Rp4621
(dp4622
g11
(dp4623
g13
I18
sg14
g31
sg16
VMan Utd
p4624
ssbasS'31'
p4625
(lp4626
g5
(g6
g7
Ntp4627
Rp4628
(dp4629
g11
(dp4630
g13
I31
sg14
g31
sg16
VTottenham
p4631
ssbasS'30'
p4632
(lp4633
g5
(g6
g7
Ntp4634
Rp4635
(dp4636
g11
(dp4637
g13
I30
sg14
g31
sg16
VArsenal
p4638
ssbasS'37'
p4639
(lp4640
g5
(g6
g7
Ntp4641
Rp4642
(dp4643
g11
(dp4644
g13
I37
sg14
g15
sg16
VMan Utd
p4645
ssbasS'36'
p4646
(lp4647
g5
(g6
g7
Ntp4648
Rp4649
(dp4650
g11
(dp4651
g13
I36
sg14
g31
sg16
VMan City
p4652
ssbag5
(g6
g7
Ntp4653
Rp4654
(dp4655
g11
(dp4656
g13
I36
sg14
g15
sg16
VWigan
p4657
ssbasS'35'
p4658
(lp4659
g5
(g6
g7
Ntp4660
Rp4661
(dp4662
g11
(dp4663
g13
I35
sg14
g15
sg16
VChelsea
p4664
ssbasS'34'
p4665
(lp4666
g5
(g6
g7
Ntp4667
Rp4668
(dp4669
g11
(dp4670
g13
I34
sg14
g31
sg16
VSouthampton
p4671
ssbasS'33'
p4672
(lp4673
sS'32'
p4674
(lp4675
g5
(g6
g7
Ntp4676
Rp4677
(dp4678
g11
(dp4679
g13
I32
sg14
g15
sg16
VNorwich
p4680
ssbassS'Chelsea'
p4681
(dp4682
S'24'
p4683
(lp4684
g5
(g6
g7
Ntp4685
Rp4686
(dp4687
g11
(dp4688
g13
I24
sg14
g15
sg16
VReading
p4689
ssbasS'25'
p4690
(lp4691
g5
(g6
g7
Ntp4692
Rp4693
(dp4694
g11
(dp4695
g13
I25
sg14
g15
sg16
VNewcastle
p4696
ssbasS'26'
p4697
(lp4698
g5
(g6
g7
Ntp4699
Rp4700
(dp4701
g11
(dp4702
g13
I26
sg14
g31
sg16
VWigan
p4703
ssbasS'27'
p4704
(lp4705
g5
(g6
g7
Ntp4706
Rp4707
(dp4708
g11
(dp4709
g13
I27
sg14
g15
sg16
VMan City
p4710
ssbasS'20'
p4711
(lp4712
g5
(g6
g7
Ntp4713
Rp4714
(dp4715
g11
(dp4716
g13
I20
sg14
g15
sg16
VEverton
p4717
ssbasS'21'
p4718
(lp4719
g5
(g6
g7
Ntp4720
Rp4721
(dp4722
g11
(dp4723
g13
I21
sg14
g31
sg16
VQPR
p4724
ssbasS'22'
p4725
(lp4726
g5
(g6
g7
Ntp4727
Rp4728
(dp4729
g11
(dp4730
g13
I22
sg14
g15
sg16
VStoke City
p4731
ssbag5
(g6
g7
Ntp4732
Rp4733
(dp4734
g11
(dp4735
g13
I22
sg14
g31
sg16
VSouthampton
p4736
ssbasS'23'
p4737
(lp4738
g5
(g6
g7
Ntp4739
Rp4740
(dp4741
g11
(dp4742
g13
I23
sg14
g31
sg16
VArsenal
p4743
ssbasS'28'
p4744
(lp4745
g5
(g6
g7
Ntp4746
Rp4747
(dp4748
g11
(dp4749
g13
I28
sg14
g31
sg16
VWest Brom
p4750
ssbasS'29'
p4751
(lp4752
sg87
(lp4753
g5
(g6
g7
Ntp4754
Rp4755
(dp4756
g11
(dp4757
g13
I1
sg14
g15
sg16
VWigan
p4758
ssbag5
(g6
g7
Ntp4759
Rp4760
(dp4761
g11
(dp4762
g13
I1
sg14
g31
sg16
VReading
p4763
ssbasg94
(lp4764
sg101
(lp4765
g5
(g6
g7
Ntp4766
Rp4767
(dp4768
g11
(dp4769
g13
I2
sg14
g31
sg16
VNewcastle
p4770
ssbasg108
(lp4771
g5
(g6
g7
Ntp4772
Rp4773
(dp4774
g11
(dp4775
g13
I5
sg14
g31
sg16
VStoke City
p4776
ssbasg115
(lp4777
g5
(g6
g7
Ntp4778
Rp4779
(dp4780
g11
(dp4781
g13
I4
sg14
g15
sg16
VQPR
p4782
ssbasg122
(lp4783
g5
(g6
g7
Ntp4784
Rp4785
(dp4786
g11
(dp4787
g13
I7
sg14
g31
sg16
VNorwich
p4788
ssbasg129
(lp4789
g5
(g6
g7
Ntp4790
Rp4791
(dp4792
g11
(dp4793
g13
I6
sg14
g15
sg16
VArsenal
p4794
ssbasg136
(lp4795
g5
(g6
g7
Ntp4796
Rp4797
(dp4798
g11
(dp4799
g13
I9
sg14
g31
sg16
VMan Utd
p4800
ssbasg143
(lp4801
g5
(g6
g7
Ntp4802
Rp4803
(dp4804
g11
(dp4805
g13
I8
sg14
g15
sg16
VTottenham
p4806
ssbasS'38'
p4807
(lp4808
g5
(g6
g7
Ntp4809
Rp4810
(dp4811
g11
(dp4812
g13
I38
sg14
g31
sg16
VEverton
p4813
ssbasS'11'
p4814
(lp4815
g5
(g6
g7
Ntp4816
Rp4817
(dp4818
g11
(dp4819
g13
I11
sg14
g31
sg16
VLiverpool
p4820
ssbasS'10'
p4821
(lp4822
g5
(g6
g7
Ntp4823
Rp4824
(dp4825
g11
(dp4826
g13
I10
sg14
g15
sg16
VSwansea
p4827
ssbasS'13'
p4828
(lp4829
g5
(g6
g7
Ntp4830
Rp4831
(dp4832
g11
(dp4833
g13
I13
sg14
g31
sg16
VMan City
p4834
ssbasS'12'
p4835
(lp4836
g5
(g6
g7
Ntp4837
Rp4838
(dp4839
g11
(dp4840
g13
I12
sg14
g15
sg16
VWest Brom
p4841
ssbasS'15'
p4842
(lp4843
g5
(g6
g7
Ntp4844
Rp4845
(dp4846
g11
(dp4847
g13
I15
sg14
g15
sg16
VWest Ham
p4848
ssbasS'14'
p4849
(lp4850
g5
(g6
g7
Ntp4851
Rp4852
(dp4853
g11
(dp4854
g13
I14
sg14
g31
sg16
VFulham
p4855
ssbasS'17'
p4856
(lp4857
sS'16'
p4858
(lp4859
g5
(g6
g7
Ntp4860
Rp4861
(dp4862
g11
(dp4863
g13
I16
sg14
g15
sg16
VSunderland
p4864
ssbasS'19'
p4865
(lp4866
g5
(g6
g7
Ntp4867
Rp4868
(dp4869
g11
(dp4870
g13
I19
sg14
g15
sg16
VNorwich
p4871
ssbasS'18'
p4872
(lp4873
g5
(g6
g7
Ntp4874
Rp4875
(dp4876
g11
(dp4877
g13
I18
sg14
g31
sg16
VAston Villa
p4878
ssbasS'31'
p4879
(lp4880
g5
(g6
g7
Ntp4881
Rp4882
(dp4883
g11
(dp4884
g13
I31
sg14
g15
sg16
VSouthampton
p4885
ssbasS'30'
p4886
(lp4887
g5
(g6
g7
Ntp4888
Rp4889
(dp4890
g11
(dp4891
g13
I30
sg14
g31
sg16
VWest Ham
p4892
ssbasS'37'
p4893
(lp4894
g5
(g6
g7
Ntp4895
Rp4896
(dp4897
g11
(dp4898
g13
I37
sg14
g15
sg16
VAston Villa
p4899
ssbasS'36'
p4900
(lp4901
g5
(g6
g7
Ntp4902
Rp4903
(dp4904
g11
(dp4905
g13
I36
sg14
g15
sg16
VMan Utd
p4906
ssbag5
(g6
g7
Ntp4907
Rp4908
(dp4909
g11
(dp4910
g13
I36
sg14
g31
sg16
VTottenham
p4911
ssbasS'35'
p4912
(lp4913
g5
(g6
g7
Ntp4914
Rp4915
(dp4916
g11
(dp4917
g13
I35
sg14
g31
sg16
VSwansea
p4918
ssbasS'34'
p4919
(lp4920
g5
(g6
g7
Ntp4921
Rp4922
(dp4923
g11
(dp4924
g13
I34
sg14
g15
sg16
VLiverpool
p4925
ssbasS'33'
p4926
(lp4927
g5
(g6
g7
Ntp4928
Rp4929
(dp4930
g11
(dp4931
g13
I33
sg14
g15
sg16
VFulham
p4932
ssbasS'32'
p4933
(lp4934
g5
(g6
g7
Ntp4935
Rp4936
(dp4937
g11
(dp4938
g13
I32
sg14
g31
sg16
VSunderland
p4939
ssbassS'Tottenham'
p4940
(dp4941
S'24'
p4942
(lp4943
g5
(g6
g7
Ntp4944
Rp4945
(dp4946
g11
(dp4947
g13
I24
sg14
g15
sg16
VNorwich
p4948
ssbasS'25'
p4949
(lp4950
g5
(g6
g7
Ntp4951
Rp4952
(dp4953
g11
(dp4954
g13
I25
sg14
g15
sg16
VWest Brom
p4955
ssbasS'26'
p4956
(lp4957
g5
(g6
g7
Ntp4958
Rp4959
(dp4960
g11
(dp4961
g13
I26
sg14
g31
sg16
VNewcastle
p4962
ssbasS'27'
p4963
(lp4964
g5
(g6
g7
Ntp4965
Rp4966
(dp4967
g11
(dp4968
g13
I27
sg14
g15
sg16
VWest Ham
p4969
ssbasS'20'
p4970
(lp4971
g5
(g6
g7
Ntp4972
Rp4973
(dp4974
g11
(dp4975
g13
I20
sg14
g15
sg16
VSunderland
p4976
ssbasS'21'
p4977
(lp4978
g5
(g6
g7
Ntp4979
Rp4980
(dp4981
g11
(dp4982
g13
I21
sg14
g31
sg16
VReading
p4983
ssbasS'22'
p4984
(lp4985
g5
(g6
g7
Ntp4986
Rp4987
(dp4988
g11
(dp4989
g13
I22
sg14
g15
sg16
VQPR
p4990
ssbasS'23'
p4991
(lp4992
g5
(g6
g7
Ntp4993
Rp4994
(dp4995
g11
(dp4996
g13
I23
sg14
g31
sg16
VMan Utd
p4997
ssbasS'28'
p4998
(lp4999
g5
(g6
g7
Ntp5000
Rp5001
(dp5002
g11
(dp5003
g13
I28
sg14
g31
sg16
VArsenal
p5004
ssbasS'29'
p5005
(lp5006
g5
(g6
g7
Ntp5007
Rp5008
(dp5009
g11
(dp5010
g13
I29
sg14
g15
sg16
VLiverpool
p5011
ssbasg87
(lp5012
g5
(g6
g7
Ntp5013
Rp5014
(dp5015
g11
(dp5016
g13
I1
sg14
g15
sg16
VNewcastle
p5017
ssbasg94
(lp5018
g5
(g6
g7
Ntp5019
Rp5020
(dp5021
g11
(dp5022
g13
I3
sg14
g31
sg16
VNorwich
p5023
ssbasg101
(lp5024
g5
(g6
g7
Ntp5025
Rp5026
(dp5027
g11
(dp5028
g13
I2
sg14
g31
sg16
VWest Brom
p5029
ssbasg108
(lp5030
g5
(g6
g7
Ntp5031
Rp5032
(dp5033
g11
(dp5034
g13
I5
sg14
g31
sg16
VQPR
p5035
ssbasg115
(lp5036
g5
(g6
g7
Ntp5037
Rp5038
(dp5039
g11
(dp5040
g13
I4
sg14
g15
sg16
VReading
p5041
ssbasg122
(lp5042
g5
(g6
g7
Ntp5043
Rp5044
(dp5045
g11
(dp5046
g13
I7
sg14
g31
sg16
VAston Villa
p5047
ssbasg129
(lp5048
g5
(g6
g7
Ntp5049
Rp5050
(dp5051
g11
(dp5052
g13
I6
sg14
g15
sg16
VMan Utd
p5053
ssbasg136
(lp5054
g5
(g6
g7
Ntp5055
Rp5056
(dp5057
g11
(dp5058
g13
I9
sg14
g15
sg16
VSouthampton
p5059
ssbasg143
(lp5060
g5
(g6
g7
Ntp5061
Rp5062
(dp5063
g11
(dp5064
g13
I8
sg14
g31
sg16
VChelsea
p5065
ssbasS'38'
p5066
(lp5067
g5
(g6
g7
Ntp5068
Rp5069
(dp5070
g11
(dp5071
g13
I38
sg14
g31
sg16
VSunderland
p5072
ssbasS'11'
p5073
(lp5074
g5
(g6
g7
Ntp5075
Rp5076
(dp5077
g11
(dp5078
g13
I11
sg14
g15
sg16
VMan City
p5079
ssbasS'10'
p5080
(lp5081
g5
(g6
g7
Ntp5082
Rp5083
(dp5084
g11
(dp5085
g13
I10
sg14
g31
sg16
VWigan
p5086
ssbasS'13'
p5087
(lp5088
g5
(g6
g7
Ntp5089
Rp5090
(dp5091
g11
(dp5092
g13
I13
sg14
g31
sg16
VWest Ham
p5093
ssbasS'12'
p5094
(lp5095
g5
(g6
g7
Ntp5096
Rp5097
(dp5098
g11
(dp5099
g13
I12
sg14
g15
sg16
VArsenal
p5100
ssbasS'15'
p5101
(lp5102
g5
(g6
g7
Ntp5103
Rp5104
(dp5105
g11
(dp5106
g13
I15
sg14
g15
sg16
VFulham
p5107
ssbasS'14'
p5108
(lp5109
g5
(g6
g7
Ntp5110
Rp5111
(dp5112
g11
(dp5113
g13
I14
sg14
g31
sg16
VLiverpool
p5114
ssbasS'17'
p5115
(lp5116
g5
(g6
g7
Ntp5117
Rp5118
(dp5119
g11
(dp5120
g13
I17
sg14
g31
sg16
VSwansea
p5121
ssbasS'16'
p5122
(lp5123
g5
(g6
g7
Ntp5124
Rp5125
(dp5126
g11
(dp5127
g13
I16
sg14
g15
sg16
VEverton
p5128
ssbasS'19'
p5129
(lp5130
g5
(g6
g7
Ntp5131
Rp5132
(dp5133
g11
(dp5134
g13
I19
sg14
g15
sg16
VAston Villa
p5135
ssbasS'18'
p5136
(lp5137
g5
(g6
g7
Ntp5138
Rp5139
(dp5140
g11
(dp5141
g13
I18
sg14
g31
sg16
VStoke City
p5142
ssbasS'31'
p5143
(lp5144
g5
(g6
g7
Ntp5145
Rp5146
(dp5147
g11
(dp5148
g13
I31
sg14
g15
sg16
VSwansea
p5149
ssbasS'30'
p5150
(lp5151
g5
(g6
g7
Ntp5152
Rp5153
(dp5154
g11
(dp5155
g13
I30
sg14
g31
sg16
VFulham
p5156
ssbasS'37'
p5157
(lp5158
g5
(g6
g7
Ntp5159
Rp5160
(dp5161
g11
(dp5162
g13
I37
sg14
g15
sg16
VStoke City
p5163
ssbasS'36'
p5164
(lp5165
g5
(g6
g7
Ntp5166
Rp5167
(dp5168
g11
(dp5169
g13
I36
sg14
g31
sg16
VSouthampton
p5170
ssbag5
(g6
g7
Ntp5171
Rp5172
(dp5173
g11
(dp5174
g13
I36
sg14
g15
sg16
VChelsea
p5175
ssbasS'35'
p5176
(lp5177
g5
(g6
g7
Ntp5178
Rp5179
(dp5180
g11
(dp5181
g13
I35
sg14
g15
sg16
VWigan
p5182
ssbasS'34'
p5183
(lp5184
g5
(g6
g7
Ntp5185
Rp5186
(dp5187
g11
(dp5188
g13
I34
sg14
g31
sg16
VMan City
p5189
ssbasS'33'
p5190
(lp5191
sS'32'
p5192
(lp5193
g5
(g6
g7
Ntp5194
Rp5195
(dp5196
g11
(dp5197
g13
I32
sg14
g31
sg16
VEverton
p5198
ssbass.